
pdm_4ch.elf:     file format elf32-littlenios2
pdm_4ch.elf
architecture: nios2:r1, flags 0x00000112:
EXEC_P, HAS_SYMS, D_PAGED
start address 0x00800250

Program Header:
    LOAD off    0x00001000 vaddr 0x00002000 paddr 0x00002000 align 2**12
         filesz 0x00000000 memsz 0x00000000 flags r-x
    LOAD off    0x00001020 vaddr 0x00800020 paddr 0x00800020 align 2**12
         filesz 0x0001b540 memsz 0x0002b838 flags rwx

Sections:
Idx Name          Size      VMA       LMA       File off  Algn
  0 .entry        00000000  00002000  00002000  00001000  2**5
                  CONTENTS, ALLOC, LOAD, READONLY, CODE
  1 .exceptions   00000230  00800020  00800020  00001020  2**2
                  CONTENTS, ALLOC, LOAD, READONLY, CODE
  2 .text         000120a8  00800250  00800250  00001250  2**2
                  CONTENTS, ALLOC, LOAD, READONLY, CODE
  3 .rodata       00007a04  008122f8  008122f8  000132f8  2**2
                  CONTENTS, ALLOC, LOAD, READONLY, DATA
  4 .rwdata       00001864  00819cfc  00819cfc  0001acfc  2**2
                  CONTENTS, ALLOC, LOAD, DATA, SMALL_DATA
  5 .bss          000102f8  0081b560  0081b560  0001c560  2**2
                  ALLOC, SMALL_DATA
  6 .serialflash  00000000  00002020  00002020  0001c560  2**0
                  CONTENTS
  7 .onchip_flash 00000000  00080000  00080000  0001c560  2**0
                  CONTENTS
  8 .sdram        00000000  0082b858  0082b858  0001c560  2**0
                  CONTENTS
  9 .comment      00000023  00000000  00000000  0001c560  2**0
                  CONTENTS, READONLY
 10 .debug_aranges 00000c70  00000000  00000000  0001c588  2**3
                  CONTENTS, READONLY, DEBUGGING
 11 .debug_info   000145d6  00000000  00000000  0001d1f8  2**0
                  CONTENTS, READONLY, DEBUGGING
 12 .debug_abbrev 00006b62  00000000  00000000  000317ce  2**0
                  CONTENTS, READONLY, DEBUGGING
 13 .debug_line   000091b8  00000000  00000000  00038330  2**0
                  CONTENTS, READONLY, DEBUGGING
 14 .debug_frame  00002d0c  00000000  00000000  000414e8  2**2
                  CONTENTS, READONLY, DEBUGGING
 15 .debug_str    000047f3  00000000  00000000  000441f4  2**0
                  CONTENTS, READONLY, DEBUGGING
 16 .debug_loc    0000bd92  00000000  00000000  000489e7  2**0
                  CONTENTS, READONLY, DEBUGGING
 17 .debug_alt_sim_info 00000010  00000000  00000000  0005477c  2**2
                  CONTENTS, READONLY, DEBUGGING
 18 .debug_ranges 00001270  00000000  00000000  00054790  2**3
                  CONTENTS, READONLY, DEBUGGING
 19 .thread_model 00000003  00000000  00000000  00059e71  2**0
                  CONTENTS, READONLY
 20 .cpu          0000000a  00000000  00000000  00059e74  2**0
                  CONTENTS, READONLY
 21 .qsys         00000001  00000000  00000000  00059e7e  2**0
                  CONTENTS, READONLY
 22 .simulation_enabled 00000001  00000000  00000000  00059e7f  2**0
                  CONTENTS, READONLY
 23 .sysid_hash   00000004  00000000  00000000  00059e80  2**0
                  CONTENTS, READONLY
 24 .sysid_base   00000004  00000000  00000000  00059e84  2**0
                  CONTENTS, READONLY
 25 .sysid_time   00000004  00000000  00000000  00059e88  2**0
                  CONTENTS, READONLY
 26 .stderr_dev   00000009  00000000  00000000  00059e8c  2**0
                  CONTENTS, READONLY
 27 .stdin_dev    00000009  00000000  00000000  00059e95  2**0
                  CONTENTS, READONLY
 28 .stdout_dev   00000009  00000000  00000000  00059e9e  2**0
                  CONTENTS, READONLY
 29 .sopc_system_name 00000004  00000000  00000000  00059ea7  2**0
                  CONTENTS, READONLY
 30 .quartus_project_dir 00000014  00000000  00000000  00059eab  2**0
                  CONTENTS, READONLY
 31 .sopcinfo     000970f9  00000000  00000000  00059ebf  2**0
                  CONTENTS, READONLY
SYMBOL TABLE:
00002000 l    d  .entry	00000000 .entry
00800020 l    d  .exceptions	00000000 .exceptions
00800250 l    d  .text	00000000 .text
008122f8 l    d  .rodata	00000000 .rodata
00819cfc l    d  .rwdata	00000000 .rwdata
0081b560 l    d  .bss	00000000 .bss
00002020 l    d  .serialflash	00000000 .serialflash
00080000 l    d  .onchip_flash	00000000 .onchip_flash
0082b858 l    d  .sdram	00000000 .sdram
00000000 l    d  .comment	00000000 .comment
00000000 l    d  .debug_aranges	00000000 .debug_aranges
00000000 l    d  .debug_info	00000000 .debug_info
00000000 l    d  .debug_abbrev	00000000 .debug_abbrev
00000000 l    d  .debug_line	00000000 .debug_line
00000000 l    d  .debug_frame	00000000 .debug_frame
00000000 l    d  .debug_str	00000000 .debug_str
00000000 l    d  .debug_loc	00000000 .debug_loc
00000000 l    d  .debug_alt_sim_info	00000000 .debug_alt_sim_info
00000000 l    d  .debug_ranges	00000000 .debug_ranges
00000000 l    df *ABS*	00000000 ../pdm_4ch_bsp//obj/HAL/src/crt0.o
00800284 l       .text	00000000 alt_after_alt_main
00000000 l    df *ABS*	00000000 obj/default/FreeRTOS/Source/portable/GCC/NiosII/port_asm.o
00800020 l       .exceptions	00000000 save_context
0080009c l       .exceptions	00000000 save_sp_to_pxCurrentTCB
008000ac l       .exceptions	00000000 hw_irq_test
00800150 l       .exceptions	00000000 soft_exceptions
008000c0 l       .exceptions	00000000 hw_irq_handler
008000d4 l       .exceptions	00000000 restore_context
0080016c l       .exceptions	00000000 call_scheduler
00000000 l    df *ABS*	00000000 alt_irq_handler.c
00000000 l    df *ABS*	00000000 list.c
00000000 l    df *ABS*	00000000 port.c
00800678 l     F .text	00000090 prvSetupTimerInterrupt
00000000 l    df *ABS*	00000000 heap_2.c
0081b5f0 l     O .bss	00010000 ucHeap
0081b4e0 l     O .rwdata	00000002 heapSTRUCT_SIZE
0081b560 l     O .bss	00000008 xStart
0081b568 l     O .bss	00000008 xEnd
0081b4e4 l     O .rwdata	00000004 xFreeBytesRemaining
0081b570 l     O .bss	00000004 xHeapHasBeenInitialised.2579
00800c74 l     F .text	0000006c prvHeapInit
00000000 l    df *ABS*	00000000 queue.c
00800eac l     F .text	00000084 prvInitialiseNewQueue
00800f30 l     F .text	00000060 prvInitialiseMutex
00801984 l     F .text	0000018c prvCopyDataToQueue
00801d30 l     F .text	00000058 prvIsQueueFull
00801bac l     F .text	000000f4 prvUnlockQueue
00801b10 l     F .text	0000009c prvCopyDataFromQueue
00801ca0 l     F .text	00000050 prvIsQueueEmpty
00000000 l    df *ABS*	00000000 tasks.c
0082b5f0 l     O .bss	00000064 pxReadyTasksLists
0082b654 l     O .bss	00000014 xDelayedTaskList1
0082b668 l     O .bss	00000014 xDelayedTaskList2
0081b578 l     O .bss	00000004 pxDelayedTaskList
0081b57c l     O .bss	00000004 pxOverflowDelayedTaskList
0082b67c l     O .bss	00000014 xPendingReadyList
0082b690 l     O .bss	00000014 xTasksWaitingTermination
0081b580 l     O .bss	00000004 uxDeletedTasksWaitingCleanUp
0082b6a4 l     O .bss	00000014 xSuspendedTaskList
0081b584 l     O .bss	00000004 uxCurrentNumberOfTasks
0081b588 l     O .bss	00000004 xTickCount
0081b58c l     O .bss	00000004 uxTopReadyPriority
0081b590 l     O .bss	00000004 xSchedulerRunning
0081b594 l     O .bss	00000004 uxPendedTicks
0081b598 l     O .bss	00000004 xYieldPending
0081b59c l     O .bss	00000004 xNumOfOverflows
0081b5a0 l     O .bss	00000004 uxTaskNumber
0081b5a4 l     O .bss	00000004 xNextTaskUnblockTime
0081b5a8 l     O .bss	00000004 xIdleTaskHandle
0081b5ac l     O .bss	00000004 uxSchedulerSuspended
00801eb8 l     F .text	000001d0 prvInitialiseNewTask
00802088 l     F .text	00000108 prvAddNewTaskToReadyList
0080335c l     F .text	000000c0 prvInitialiseTaskLists
00803588 l     F .text	00000044 prvDeleteTCB
008035cc l     F .text	00000068 prvResetNextTaskUnblockTime
008040c4 l     F .text	000000e8 prvAddCurrentTaskToDelayedList
0080271c l     F .text	00000094 prvTaskIsTaskSuspended
00803340 l     F .text	0000001c prvIdleTask
0080341c l     F .text	000000a8 prvCheckTasksWaitingTermination
008034c4 l     F .text	00000064 prvTaskCheckFreeStackSpace
00000000 l    df *ABS*	00000000 adafruitFont.c
00000000 l    df *ABS*	00000000 font12.c
00000000 l    df *ABS*	00000000 font16.c
00000000 l    df *ABS*	00000000 font20.c
00000000 l    df *ABS*	00000000 font24.c
00000000 l    df *ABS*	00000000 ILI9341_nios.c
00000000 l    df *ABS*	00000000 dma.c
00000000 l    df *ABS*	00000000 ft245_fifo.c
008059a8 l     F .text	00000058 FT245_IRQ_SERVICE
00000000 l    df *ABS*	00000000 grp_lcd.c
00000000 l    df *ABS*	00000000 pdm_main.c
00000000 l    df *ABS*	00000000 pdm_sub.c
00000000 l    df *ABS*	00000000 pdmmic.c
0081b5c0 l     O .bss	00000004 CoeffOfstCncl
00000000 l    df *ABS*	00000000 task_button.c
00000000 l    df *ABS*	00000000 task_com.c
00000000 l    df *ABS*	00000000 task_disp.c
00000000 l    df *ABS*	00000000 task_main.c
00000000 l    df *ABS*	00000000 task_sns.c
00000000 l    df *ABS*	00000000 wave_img.c
00000000 l    df *ABS*	00000000 w_pow.c
00000000 l    df *ABS*	00000000 e_pow.c
00000000 l    df *ABS*	00000000 e_sqrt.c
00000000 l    df *ABS*	00000000 s_fabs.c
00000000 l    df *ABS*	00000000 s_finite.c
00000000 l    df *ABS*	00000000 s_fpclassify.c
00000000 l    df *ABS*	00000000 s_lib_ver.c
00000000 l    df *ABS*	00000000 s_matherr.c
00000000 l    df *ABS*	00000000 s_nan.c
00000000 l    df *ABS*	00000000 s_rint.c
00819ba0 l     O .rodata	00000010 TWO52
00000000 l    df *ABS*	00000000 s_scalbn.c
00000000 l    df *ABS*	00000000 s_copysign.c
00000000 l    df *ABS*	00000000 lib2-mul.c
00000000 l    df *ABS*	00000000 addsf3.c
00000000 l    df *ABS*	00000000 divsf3.c
00000000 l    df *ABS*	00000000 gesf2.c
00000000 l    df *ABS*	00000000 mulsf3.c
00000000 l    df *ABS*	00000000 subsf3.c
00000000 l    df *ABS*	00000000 fixsfsi.c
00000000 l    df *ABS*	00000000 floatsisf.c
00000000 l    df *ABS*	00000000 floatunsisf.c
00000000 l    df *ABS*	00000000 adddf3.c
00000000 l    df *ABS*	00000000 divdf3.c
00000000 l    df *ABS*	00000000 eqdf2.c
00000000 l    df *ABS*	00000000 gedf2.c
00000000 l    df *ABS*	00000000 ledf2.c
00000000 l    df *ABS*	00000000 muldf3.c
00000000 l    df *ABS*	00000000 subdf3.c
00000000 l    df *ABS*	00000000 fixdfsi.c
00000000 l    df *ABS*	00000000 floatsidf.c
00000000 l    df *ABS*	00000000 extendsfdf2.c
00000000 l    df *ABS*	00000000 truncdfsf2.c
00000000 l    df *ABS*	00000000 libgcc2.c
00000000 l    df *ABS*	00000000 lib2-divmod.c
00000000 l    df *ABS*	00000000 libgcc2.c
00000000 l    df *ABS*	00000000 errno.c
00000000 l    df *ABS*	00000000 impure.c
00819cfc l     O .rwdata	00000424 impure_data
00000000 l    df *ABS*	00000000 memcpy.c
00000000 l    df *ABS*	00000000 memset.c
00000000 l    df *ABS*	00000000 alt_iic.c
00000000 l    df *ABS*	00000000 alt_irq_vars.c
00000000 l    df *ABS*	00000000 alt_main.c
00000000 l    df *ABS*	00000000 alt_sys_init.c
0080f8e0 l     F .text	00000034 alt_dev_reg
0081a120 l     O .rwdata	000000a4 dma_priv
0081a1c4 l     O .rwdata	0000001c dma_tx
0081a1e0 l     O .rwdata	0000001c dma_rx
0081a1fc l     O .rwdata	000000a4 dma_LCD_priv
0081a2a0 l     O .rwdata	0000001c dma_LCD_tx
0081a2bc l     O .rwdata	0000001c dma_LCD_rx
0081a2d8 l     O .rwdata	00001060 jtag_uart
00000000 l    df *ABS*	00000000 altera_avalon_dma.c
0080f9f4 l     F .text	00000034 alt_dma_txchan_reg
0080fa28 l     F .text	00000034 alt_dma_rxchan_reg
0080fb54 l     F .text	0000009c alt_avalon_dma_launch_txonly
0080fbf0 l     F .text	0000009c alt_avalon_dma_launch_rxonly
0080fc8c l     F .text	00000344 alt_avalon_dma_ioctl
00810344 l     F .text	000001c0 alt_avalon_dma_irq
00000000 l    df *ABS*	00000000 altera_avalon_jtag_uart_fd.c
00000000 l    df *ABS*	00000000 altera_avalon_jtag_uart_init.c
008107dc l     F .text	0000020c altera_avalon_jtag_uart_irq
008109e8 l     F .text	000000a0 altera_avalon_jtag_uart_timeout
00000000 l    df *ABS*	00000000 altera_avalon_jtag_uart_ioctl.c
00000000 l    df *ABS*	00000000 altera_avalon_jtag_uart_read.c
00000000 l    df *ABS*	00000000 altera_avalon_jtag_uart_write.c
00000000 l    df *ABS*	00000000 altera_avalon_timer_sc.c
00811020 l     F .text	00000078 alt_avalon_timer_sc_irq
00000000 l    df *ABS*	00000000 alt_alarm_start.c
00000000 l    df *ABS*	00000000 alt_close.c
00811240 l     F .text	0000003c alt_get_errno
00000000 l    df *ABS*	00000000 alt_dev.c
00811354 l     F .text	0000002c alt_dev_null_write
00000000 l    df *ABS*	00000000 alt_dev_llist_insert.c
00811380 l     F .text	0000003c alt_get_errno
00000000 l    df *ABS*	00000000 alt_dma_rxchan_open.c
00811460 l     F .text	0000003c alt_get_errno
00000000 l    df *ABS*	00000000 alt_dma_txchan_open.c
008114f0 l     F .text	0000003c alt_get_errno
00000000 l    df *ABS*	00000000 alt_do_ctors.c
00000000 l    df *ABS*	00000000 alt_do_dtors.c
00000000 l    df *ABS*	00000000 alt_errno.c
00000000 l    df *ABS*	00000000 alt_find_dev.c
00000000 l    df *ABS*	00000000 alt_io_redirect.c
008116d0 l     F .text	000000e4 alt_open_fd
00000000 l    df *ABS*	00000000 alt_open.c
00811830 l     F .text	0000003c alt_get_errno
0081186c l     F .text	000000ec alt_file_locked
00000000 l    df *ABS*	00000000 alt_release_fd.c
00000000 l    df *ABS*	00000000 alt_tick.c
00000000 l    df *ABS*	00000000 altera_nios2_gen2_irq.c
00000000 l    df *ABS*	00000000 alt_find_file.c
00000000 l    df *ABS*	00000000 alt_get_fd.c
00000000 l    df *ABS*	00000000 atexit.c
00000000 l    df *ABS*	00000000 exit.c
00000000 l    df *ABS*	00000000 int_errno.c
00000000 l    df *ABS*	00000000 memcmp.c
00000000 l    df *ABS*	00000000 strlen.c
00000000 l    df *ABS*	00000000 __atexit.c
00000000 l    df *ABS*	00000000 __call_atexit.c
00000000 l    df *ABS*	00000000 alt_exit.c
00807f1c g     F .text	00000034 disable_PDM
00806948 g     F .text	0000012c glcd_put_string_Adafruit
00805e44 g     F .text	00000078 glcd_drawLine
0080f864 g     F .text	0000007c alt_main
008073b0 g     F .text	000000bc HostStsChk
0082b758 g     O .bss	00000100 alt_irq
0080adec g     F .text	00000014 fabs
008000c4 g       .exceptions	00000000 restore_sp_from_pxCurrentTCB
00802fb8 g     F .text	00000064 vTaskPlaceOnUnorderedEventList
00800c34 g     F .text	00000020 xPortGetFreeHeapSize
0080da48 g     F .text	00000088 .hidden __eqdf2
00805ebc g     F .text	0000006c glcd_drawHline
008023c4 g     F .text	00000058 uxTaskPriorityGet
008042e4 g     F .text	00000028 get_LCD_DMA_sts
00805dec g     F .text	00000058 glcd_PointSet
00810504 g     F .text	000000b4 alt_avalon_dma_init
0080b738 g     F .text	00000440 .hidden __divsf3
008038ac g     F .text	00000054 vTaskEnterCritical
0080132c g     F .text	000000e8 xQueueGenericSendFromISR
00802c50 g     F .text	00000040 pcTaskGetName
00809204 g     F .text	00000088 plotPoint
0080c548 g     F .text	00000070 .hidden __fixsfsi
00805934 g     F .text	0000002c getDMAsts
0082b6b8 g     O .bss	00000050 FntList
00806130 g     F .text	00000288 put_charPattern
0080dad0 g     F .text	000000dc .hidden __gtdf2
00811cdc g     F .text	00000024 altera_nios2_gen2_irq_init
0080f434 g     F .text	00000010 __errno
00805960 g     F .text	00000048 initFT245mod
00002000 g     F .entry	00000000 __reset
00800fec g     F .text	00000090 xQueueGiveMutexRecursive
0081b574 g     O .bss	00000004 pxCurrentTCB
0081b5ec g     O .bss	00000004 errno
00808698 g     F .text	00000194 task_button
0080430c g     F .text	00000040 init_LCD_DMA
0080928c g     F .text	00000370 DispWaveImg
0081b5dc g     O .bss	00000004 alt_argv
008234e0 g       *ABS*	00000000 _gp
0081b50c g     O .rwdata	00000004 pLCD_DMA
0080c064 g     F .text	000004e4 .hidden __subsf3
00815dae g     O .rodata	000002f8 FreeSerif18pt7bGlyphs
008049c8 g     F .text	00000198 BitBlt_9341
00807f50 g     F .text	00000280 CansellOffset
00802468 g     F .text	000001d4 vTaskPrioritySet
00805f28 g     F .text	0000006c glcd_drawVline
0081152c g     F .text	00000054 alt_dma_txchan_open
0081b514 g     O .rwdata	00000004 pFT245
0081b360 g     O .rwdata	00000180 alt_fd_list
00800620 g     F .text	00000038 xPortStartScheduler
00802a04 g     F .text	00000048 vTaskEndScheduler
00811640 g     F .text	00000090 alt_find_dev
0080f444 g     F .text	00000148 memcpy
00812944 g     O .rodata	0000000c FreeMono9pt7b
00802f68 g     F .text	00000050 vTaskPlaceOnEventList
0080ee88 g     F .text	000000dc .hidden __floatsidf
008117b4 g     F .text	0000007c alt_io_redirect
0080dbac g     F .text	000000f4 .hidden __ltdf2
00801808 g     F .text	0000007c xQueuePeekFromISR
008122f8 g       *ABS*	00000000 __DTOR_END__
00817119 g     O .rodata	00000ed8 Font20_Table
00808ba4 g     F .text	00000330 task_disp
00800b68 g     F .text	000000cc vPortFree
0080ae1c g     F .text	00000074 __fpclassifyd
00810be0 g     F .text	0000021c altera_avalon_jtag_uart_read
0080f378 g     F .text	00000064 .hidden __udivsi3
0081b5cc g     O .bss	00000004 sample_block
00803528 g     F .text	00000060 uxTaskGetStackHighWaterMark
0080031c g     F .text	0000008c vListInsertEnd
008081d0 g     F .text	0000034c MicCarivration
0082b708 g     O .bss	0000001c Ft245Data
00802888 g     F .text	000000ec xTaskResumeFromISR
00805af4 g     F .text	00000064 FT245_SendChar
008002f0 g     F .text	0000002c vListInitialiseItem
00806eac g     F .text	000000b8 uint16toAsciiHex
0081b540 g     O .rwdata	00000004 alt_max_fd
00800708 g     F .text	00000040 vPortSysTickHandler
00804540 g     F .text	00000488 init_9341
0080241c g     F .text	0000004c uxTaskPriorityGetFromISR
00800748 g     F .text	00000170 alt_irq_register
0080ef64 g     F .text	00000110 .hidden __extendsfdf2
0080c7cc g     F .text	000008ac .hidden __adddf3
0080fa5c g     F .text	000000f8 alt_avalon_dma_launch_bidir
0081b5b0 g     O .bss	00000004 GLCD_QUE
0081149c g     F .text	00000054 alt_dma_rxchan_open
0081b520 g     O .rwdata	00000004 __fdlib_version
0081b524 g     O .rwdata	00000004 _global_impure_ptr
0082b858 g       *ABS*	00000000 __bss_end
008008b8 g     F .text	000000e0 alt_iic_isr_register
00811bd4 g     F .text	00000108 alt_tick
0082b724 g     O .bss	0000000a CmdBuf
00800998 g     F .text	000001d0 pvPortMalloc
0080f818 g     F .text	0000004c alt_ic_irq_enabled
0080712c g     F .text	000000c4 char2AsciiHex
00801948 g     F .text	0000003c vQueueDelete
00800658 g     F .text	00000020 vPortEndScheduler
00807e7c g     F .text	00000068 init_PDM
00800288 g     F .text	00000068 vListInitialise
00811b38 g     F .text	0000009c alt_alarm_stop
0081b5d4 g     O .bss	00000004 alt_irq_active
00806d74 g     F .text	00000138 AsciiHex2uint16
0080017c g     F .exceptions	000000d4 alt_irq_handler
0081b338 g     O .rwdata	00000028 alt_dev_null
0081b4f0 g     O .rwdata	00000008 Font16
00802bdc g     F .text	00000028 xTaskGetTickCount
00801178 g     F .text	000001b4 xQueueGenericSend
0080aea4 g     F .text	000001ec rint
00813b3c g     O .rodata	0000103f FreeSans18pt7bBitmaps
00805d18 g     F .text	00000088 encodeRGB565
00805abc g     F .text	00000038 FT245_DisableRxIrq
0080ee08 g     F .text	00000080 .hidden __fixdfsi
008037a4 g     F .text	00000108 xTaskPriorityDisinherit
0080504c g     F .text	00000740 drawLine_9341
0081b538 g     O .rwdata	00000008 alt_dev_list
00810198 g     F .text	00000074 alt_avalon_dma_space
0081b4e8 g     O .rwdata	00000008 Font12
0080bb78 g     F .text	000000bc .hidden __gtsf2
0080301c g     F .text	00000100 xTaskRemoveFromEventList
0080dbac g     F .text	000000f4 .hidden __ledf2
0081b518 g     O .rwdata	00000004 pPDM
00805a00 g     F .text	00000040 FT245IRQregist
0080f3dc g     F .text	00000058 .hidden __umodsi3
0081b5b4 g     O .bss	00000004 SnsorQue
00809040 g     F .text	000001c4 task_sns
0082b858 g       *ABS*	00000000 end
00804498 g     F .text	000000a8 start_LCD_DMA_BufferFill
00802190 g     F .text	000000e8 vTaskDelete
0081071c g     F .text	000000c0 altera_avalon_jtag_uart_init
00808584 g     F .text	000000c4 setMicGain
00812950 g     O .rodata	00000ee5 FreeMonoBold18pt7bBitmaps
00806d1c g     F .text	00000058 InitCom
008039a4 g     F .text	00000038 pvTaskIncrementMutexHeldCount
008122f8 g       *ABS*	00000000 __CTOR_LIST__
00900000 g       *ABS*	00000000 __alt_stack_pointer
00811098 g     F .text	0000007c alt_avalon_timer_sc_init
0080f21c g     F .text	00000064 .hidden __clzsi2
00810dfc g     F .text	00000224 altera_avalon_jtag_uart_write
0081b5b8 g     O .bss	00000004 SendReqQue
0081b500 g     O .rwdata	00000008 Font24
0080323c g     F .text	000000dc xTaskCheckForTimeOut
00808b04 g     F .text	000000a0 disp_debug_str
008043f4 g     F .text	000000a4 start_LCD_DMA_FILL
0081020c g     F .text	00000138 alt_avalon_dma_send
00812144 g     F .text	00000180 __call_exitprocs
0081b54c g     O .rwdata	00000008 alt_dma_txchan_list
008039dc g     F .text	000000b0 ulTaskNotifyTake
00800250 g     F .text	00000038 _start
0081b5e4 g     O .bss	00000004 _alt_tick_rate
00802a4c g     F .text	0000002c vTaskSuspendAll
00813b30 g     O .rodata	0000000c FreeMonoBold18pt7b
00802c04 g     F .text	0000002c xTaskGetTickCountFromISR
00805da0 g     F .text	0000004c glcd_Init
0081b5e8 g     O .bss	00000004 _alt_nticks
0080f94c g     F .text	000000a8 alt_sys_init
0080c5b8 g     F .text	00000124 .hidden __floatsisf
00800480 g     F .text	00000098 uxListRemove
00814e80 g     O .rodata	00000f2e FreeSerif18pt7bBitmaps
0081202c g     F .text	00000118 __register_exitproc
00804ed8 g     F .text	0000004c ClearScreen_9341
00809ac0 g     F .text	000010a4 __ieee754_pow
00810a88 g     F .text	00000068 altera_avalon_jtag_uart_close
008095fc g     F .text	000004c4 pow
0080365c g     F .text	00000148 vTaskPriorityInherit
0080b248 g     F .text	00000028 .hidden __mulsi3
0080404c g     F .text	00000078 xTaskNotifyStateClear
008027b0 g     F .text	000000d8 vTaskResume
00804e1c g     F .text	000000bc Pset_9341
00802e70 g     F .text	000000f8 vTaskSwitchContext
008160c5 g     O .rodata	00000474 Font12_Table
0081b4f8 g     O .rwdata	00000008 Font20
008105b8 g     F .text	00000060 altera_avalon_jtag_uart_read_fd
00811e08 g     F .text	000000c4 alt_get_fd
0081b510 g     O .rwdata	00000004 pDMA
008041ac g     F .text	00000138 LoadFont
0082b748 g     O .bss	00000010 QUE_GLCD_LOCAL
00803a8c g     F .text	000000f4 xTaskNotifyWait
00816539 g     O .rodata	00000be0 Font16_Table
00805a40 g     F .text	0000007c FT245_EnableRxIrq
00811f18 g     F .text	0000007c memcmp
00810678 g     F .text	00000050 altera_avalon_jtag_uart_close_fd
0082b858 g       *ABS*	00000000 __alt_stack_base
008106c8 g     F .text	00000054 altera_avalon_jtag_uart_ioctl_fd
008071f0 g     F .text	000001c0 CmndSeq
0080263c g     F .text	000000e0 vTaskSuspend
0080d078 g     F .text	000009d0 .hidden __divdf3
00808648 g     F .text	00000050 setSampleFreq
00802c30 g     F .text	00000020 uxTaskGetNumberOfTasks
0080dca0 g     F .text	0000086c .hidden __muldf3
00806cb8 g     F .text	00000064 debug_print
00811d00 g     F .text	00000108 alt_find_file
008113bc g     F .text	000000a4 alt_dev_llist_insert
00804cc4 g     F .text	00000158 Rectangle_9341
0080107c g     F .text	000000a4 xQueueTakeMutexRecursive
00805888 g     F .text	00000044 init_DMAMOD
00803b80 g     F .text	000001b0 xTaskGenericNotify
00817ff1 g     O .rodata	00001ab8 Font24_Table
0081b560 g       *ABS*	00000000 __bss_start
0080f58c g     F .text	00000128 memset
00806a74 g     F .text	00000130 main
00810018 g     F .text	00000048 alt_avalon_dma_rx_ioctl
0081b5e0 g     O .bss	00000004 alt_envp
00810618 g     F .text	00000060 altera_avalon_jtag_uart_write_fd
008003a8 g     F .text	000000d8 vListInsert
008160a8 g     O .rodata	0000000c FreeSerif18pt7b
008060bc g     F .text	00000074 glcd_BitBLT
0080ae90 g     F .text	00000008 matherr
0080f074 g     F .text	000001a8 .hidden __truncdfsf2
0081b554 g     O .rwdata	00000004 alt_errno
00802278 g     F .text	000000f0 vTaskDelayUntil
00801724 g     F .text	000000e4 xQueueReceiveFromISR
00805b58 g     F .text	000000b0 FT245_SendBlock
00804fb8 g     F .text	00000094 drawHline_9341
00803634 g     F .text	00000028 xTaskGetCurrentTaskHandle
00804f24 g     F .text	00000094 drawVline_9341
0080f280 g     F .text	00000084 .hidden __divsi3
00812300 g     O .rodata	0000034c FreeMono9pt7bBitmaps
00800e0c g     F .text	000000a0 xQueueGenericCreate
008122f8 g       *ABS*	00000000 __CTOR_END__
00002000 g       *ABS*	00000000 __alt_mem_serialflash
0080bc34 g     F .text	00000430 .hidden __mulsf3
0080ae00 g     F .text	0000001c finite
00801120 g     F .text	00000058 xQueueCreateCountingSemaphore
008122f8 g       *ABS*	00000000 __DTOR_LIST__
0080b22c g     F .text	0000001c copysign
00803d30 g     F .text	000001ec xTaskGenericNotifyFromISR
0080da48 g     F .text	00000088 .hidden __nedf2
0080f914 g     F .text	00000038 alt_irq_init
0080311c g     F .text	000000e4 xTaskRemoveFromUnorderedEventList
00811ab4 g     F .text	00000084 alt_release_fd
00802a78 g     F .text	00000164 xTaskResumeAll
0081b508 g     O .rwdata	00000004 pILI9341
008018c4 g     F .text	00000054 uxQueueSpacesAvailable
00819bb0 g     O .rodata	00000100 .hidden __clz_tab
00802974 g     F .text	00000090 vTaskStartScheduler
00811ecc g     F .text	00000014 atexit
0080bb78 g     F .text	000000bc .hidden __gesf2
00800518 g     F .text	00000028 prvReadGp
00801d88 g     F .text	00000048 xQueueIsQueueFullFromISR
00807ee4 g     F .text	00000038 enable_PDM
0081b528 g     O .rwdata	00000004 _impure_ptr
0081b5d8 g     O .bss	00000004 alt_argc
0081264c g     O .rodata	000002f8 FreeMono9pt7bGlyphs
0080b090 g     F .text	0000019c scalbn
008115e0 g     F .text	00000060 _do_dtors
00814b7c g     O .rodata	000002f8 FreeSans18pt7bGlyphs
0081b5c8 g     O .bss	00000004 IFSTS
0081b51c g     O .rwdata	00000004 pPDMDATA
00803318 g     F .text	00000028 vTaskMissedYield
0081b530 g     O .rwdata	00000008 alt_fs_list
00806f64 g     F .text	000001c8 AsciiHex2char
0080600c g     F .text	000000b0 glcd_drawRectangleFill
00801884 g     F .text	00000040 uxQueueMessagesWaiting
008014f0 g     F .text	00000234 xQueueGenericReceive
0080ae98 g     F .text	0000000c nan
00802c90 g     F .text	000001e0 xTaskIncrementTick
0080ab64 g     F .text	00000288 __ieee754_sqrt
0080f6b4 g     F .text	00000050 alt_ic_isr_register
00800ce0 g     F .text	0000012c xQueueGenericReset
00814e74 g     O .rodata	0000000c FreeSans18pt7b
0081b560 g       *ABS*	00000000 _edata
0082b858 g       *ABS*	00000000 _end
0080578c g     F .text	000000fc Box_9341
00810af0 g     F .text	000000f0 altera_avalon_jtag_uart_ioctl
00801dd0 g     F .text	000000e8 xTaskCreate
00808ed4 g     F .text	0000016c task_main
00800c54 g     F .text	00000020 vPortInitialiseBlocks
0080f78c g     F .text	0000008c alt_ic_irq_disable
0082b72e g     O .bss	0000000a RspBuf
0080851c g     F .text	00000068 getMicData
00811ee0 g     F .text	00000038 exit
008065c0 g     F .text	00000388 put_charPattern_Adafruit
0080c6dc g     F .text	000000f0 .hidden __floatunsisf
008077fc g     F .text	00000680 Execute
0080f304 g     F .text	00000074 .hidden __modsi3
00802368 g     F .text	0000005c vTaskDelay
00900000 g       *ABS*	00000000 __alt_data_end
00806ba4 g     F .text	00000114 conv_4bit_7segdata
00800000 g       *ABS*	00000000 __alt_mem_sdram
0080434c g     F .text	000000a8 start_LCD_DMA_BitBLT
008122c4 g     F .text	00000034 _exit
0080746c g     F .text	00000390 CommandChk
00811114 g     F .text	0000012c alt_alarm_start
00803900 g     F .text	00000060 vTaskExitCritical
00811f94 g     F .text	00000098 strlen
00800540 g     F .text	000000e0 pxPortInitialiseStack
00811958 g     F .text	0000015c open
0080dad0 g     F .text	000000dc .hidden __gedf2
0080882c g     F .text	000002d8 task_com
00080000 g       *ABS*	00000000 __alt_mem_onchip_flash
00803200 g     F .text	0000003c vTaskSetTimeOutState
0081b5d0 g     O .bss	00000004 SnsCtrlSTS
0081b52c g     O .rwdata	00000004 alt_priority_mask
0080f704 g     F .text	00000088 alt_ic_irq_enable
008063b8 g     F .text	00000208 glcd_put_string_fixed
00801918 g     F .text	00000030 uxQueueMessagesWaitingFromISR
00801cf0 g     F .text	00000040 xQueueIsQueueEmptyFromISR
00804b60 g     F .text	00000164 BitBlt_9341_GRAY8
00810060 g     F .text	00000138 alt_avalon_dma_prepare
0080e50c g     F .text	000008fc .hidden __subdf3
0081b544 g     O .rwdata	00000008 alt_dma_rxchan_list
008058cc g     F .text	00000068 startDMA
0081b558 g     O .rwdata	00000008 alt_alarm_list
00811580 g     F .text	00000060 _do_ctors
00803960 g     F .text	00000044 uxTaskResetEventItemValue
00805c08 g     F .text	00000110 FT245_Send_DMA_FIFO
00800f90 g     F .text	0000005c xQueueCreateMutex
0082b738 g     O .bss	00000010 LocQue
0081127c g     F .text	000000d8 close
0080b270 g     F .text	000004c8 .hidden __addsf3
00813836 g     O .rodata	000002f8 FreeMonoBold18pt7bGlyphs
00803f1c g     F .text	00000130 vTaskNotifyGiveFromISR
00805f94 g     F .text	00000078 glcd_drawRectangle
0081b5bc g     O .bss	00000004 ButtonQue
0080ffd0 g     F .text	00000048 alt_avalon_dma_tx_ioctl
00801414 g     F .text	000000dc xQueueGiveFromISR
0081b5c4 g     O .bss	00000004 debug_disp_raw



Disassembly of section .exceptions:

00800020 <save_context>:
# Entry point for exceptions.
.section .exceptions.entry, "xa"		

# Save the entire context of a task.
save_context:
	addi	ea, ea, -4			# Point to the next instruction.
  800020:	ef7fff04 	addi	ea,ea,-4
	addi	sp,	sp, -116		# Create space on the stack.
  800024:	deffe304 	addi	sp,sp,-116
	stw		ra, 0(sp)
  800028:	dfc00015 	stw	ra,0(sp)
								# Leave a gap for muldiv 0
	stw		at, 8(sp)		 
  80002c:	d8400215 	stw	at,8(sp)
	stw		r2, 12(sp)
  800030:	d8800315 	stw	r2,12(sp)
	stw		r3, 16(sp)
  800034:	d8c00415 	stw	r3,16(sp)
	stw		r4, 20(sp)
  800038:	d9000515 	stw	r4,20(sp)
	stw		r5, 24(sp) 
  80003c:	d9400615 	stw	r5,24(sp)
	stw		r6, 28(sp) 
  800040:	d9800715 	stw	r6,28(sp)
	stw		r7, 32(sp) 
  800044:	d9c00815 	stw	r7,32(sp)
	stw		r8, 36(sp) 
  800048:	da000915 	stw	r8,36(sp)
	stw		r9, 40(sp) 
  80004c:	da400a15 	stw	r9,40(sp)
	stw		r10, 44(sp)
  800050:	da800b15 	stw	r10,44(sp)
	stw		r11, 48(sp)
  800054:	dac00c15 	stw	r11,48(sp)
	stw		r12, 52(sp)
  800058:	db000d15 	stw	r12,52(sp)
	stw		r13, 56(sp)
  80005c:	db400e15 	stw	r13,56(sp)
	stw		r14, 60(sp)
  800060:	db800f15 	stw	r14,60(sp)
	stw		r15, 64(sp)
  800064:	dbc01015 	stw	r15,64(sp)
	rdctl	r5, estatus 		# Save the eStatus
  800068:	000b307a 	rdctl	r5,estatus
	stw		r5, 68(sp)
  80006c:	d9401115 	stw	r5,68(sp)
	stw		ea, 72(sp)			# Save the PC
  800070:	df401215 	stw	ea,72(sp)
	stw		r16, 76(sp)			# Save the remaining registers
  800074:	dc001315 	stw	r16,76(sp)
	stw		r17, 80(sp)
  800078:	dc401415 	stw	r17,80(sp)
	stw		r18, 84(sp)
  80007c:	dc801515 	stw	r18,84(sp)
	stw		r19, 88(sp)
  800080:	dcc01615 	stw	r19,88(sp)
	stw		r20, 92(sp)
  800084:	dd001715 	stw	r20,92(sp)
	stw		r21, 96(sp)
  800088:	dd401815 	stw	r21,96(sp)
	stw		r22, 100(sp)
  80008c:	dd801915 	stw	r22,100(sp)
	stw		r23, 104(sp)
  800090:	ddc01a15 	stw	r23,104(sp)
	stw		gp, 108(sp)
  800094:	de801b15 	stw	gp,108(sp)
	stw		fp, 112(sp)
  800098:	df001c15 	stw	fp,112(sp)

0080009c <save_sp_to_pxCurrentTCB>:
  80009c:	060020b4 	movhi	et,130

save_sp_to_pxCurrentTCB:
	movia	et, pxCurrentTCB	# Load the address of the pxCurrentTCB pointer
  8000a0:	c62d5d04 	addi	et,et,-19084
	ldw		et, (et)			# Load the value of the pxCurrentTCB pointer
  8000a4:	c6000017 	ldw	et,0(et)
	stw		sp, (et)			# Store the stack pointer into the top of the TCB
  8000a8:	c6c00015 	stw	sp,0(et)

008000ac <hw_irq_test>:
hw_irq_test:
	/*
     * Test to see if the exception was a software exception or caused 
     * by an external interrupt, and vector accordingly.
     */
    rdctl	r4, ipending		# Load the Pending Interrupts indication
  8000ac:	0009313a 	rdctl	r4,ipending
	rdctl	r5, estatus 		# Load the eStatus (enabled interrupts).
  8000b0:	000b307a 	rdctl	r5,estatus
    andi	r2, r5, 1			# Are interrupts enabled globally.
  8000b4:	2880004c 	andi	r2,r5,1
    beq		r2, zero, soft_exceptions		# Interrupts are not enabled.
  8000b8:	10002526 	beq	r2,zero,800150 <soft_exceptions>
    beq		r4, zero, soft_exceptions		# There are no interrupts triggered.
  8000bc:	20002426 	beq	r4,zero,800150 <soft_exceptions>

008000c0 <hw_irq_handler>:

	.section .exceptions.irqhandler, "xa"
hw_irq_handler:
	call	alt_irq_handler					# Call the alt_irq_handler to deliver to the registered interrupt handler.
  8000c0:	080017c0 	call	80017c <alt_irq_handler>

008000c4 <restore_sp_from_pxCurrentTCB>:
  8000c4:	060020b4 	movhi	et,130

    .section .exceptions.irqreturn, "xa"
restore_sp_from_pxCurrentTCB:
	movia	et, pxCurrentTCB		# Load the address of the pxCurrentTCB pointer
  8000c8:	c62d5d04 	addi	et,et,-19084
	ldw		et, (et)				# Load the value of the pxCurrentTCB pointer
  8000cc:	c6000017 	ldw	et,0(et)
	ldw		sp, (et)				# Load the stack pointer with the top value of the TCB
  8000d0:	c6c00017 	ldw	sp,0(et)

008000d4 <restore_context>:

restore_context:
	ldw		ra, 0(sp)		# Restore the registers.
  8000d4:	dfc00017 	ldw	ra,0(sp)
							# Leave a gap for muldiv 0.
	ldw		at, 8(sp)
  8000d8:	d8400217 	ldw	at,8(sp)
	ldw		r2, 12(sp)
  8000dc:	d8800317 	ldw	r2,12(sp)
	ldw		r3, 16(sp)
  8000e0:	d8c00417 	ldw	r3,16(sp)
	ldw		r4, 20(sp)
  8000e4:	d9000517 	ldw	r4,20(sp)
	ldw		r5, 24(sp) 
  8000e8:	d9400617 	ldw	r5,24(sp)
	ldw		r6, 28(sp) 
  8000ec:	d9800717 	ldw	r6,28(sp)
	ldw		r7, 32(sp) 
  8000f0:	d9c00817 	ldw	r7,32(sp)
	ldw		r8, 36(sp) 
  8000f4:	da000917 	ldw	r8,36(sp)
	ldw		r9, 40(sp) 
  8000f8:	da400a17 	ldw	r9,40(sp)
	ldw		r10, 44(sp)
  8000fc:	da800b17 	ldw	r10,44(sp)
	ldw		r11, 48(sp)
  800100:	dac00c17 	ldw	r11,48(sp)
	ldw		r12, 52(sp)
  800104:	db000d17 	ldw	r12,52(sp)
	ldw		r13, 56(sp)
  800108:	db400e17 	ldw	r13,56(sp)
	ldw		r14, 60(sp)
  80010c:	db800f17 	ldw	r14,60(sp)
	ldw		r15, 64(sp)
  800110:	dbc01017 	ldw	r15,64(sp)
	ldw		et, 68(sp)		# Load the eStatus
  800114:	de001117 	ldw	et,68(sp)
	wrctl	estatus, et 	# Write the eStatus
  800118:	c001707a 	wrctl	estatus,et
	ldw		ea, 72(sp)		# Load the Program Counter
  80011c:	df401217 	ldw	ea,72(sp)
	ldw		r16, 76(sp)
  800120:	dc001317 	ldw	r16,76(sp)
	ldw		r17, 80(sp)
  800124:	dc401417 	ldw	r17,80(sp)
	ldw		r18, 84(sp)
  800128:	dc801517 	ldw	r18,84(sp)
	ldw		r19, 88(sp)
  80012c:	dcc01617 	ldw	r19,88(sp)
	ldw		r20, 92(sp)
  800130:	dd001717 	ldw	r20,92(sp)
	ldw		r21, 96(sp)
  800134:	dd401817 	ldw	r21,96(sp)
	ldw		r22, 100(sp)
  800138:	dd801917 	ldw	r22,100(sp)
	ldw		r23, 104(sp)
  80013c:	ddc01a17 	ldw	r23,104(sp)
	ldw		gp, 108(sp)
  800140:	de801b17 	ldw	gp,108(sp)
	ldw		fp, 112(sp)
  800144:	df001c17 	ldw	fp,112(sp)
	addi	sp,	sp, 116		# Release stack space
  800148:	dec01d04 	addi	sp,sp,116

    eret					# Return to address ea, loading eStatus into Status.
  80014c:	ef80083a 	eret

00800150 <soft_exceptions>:
   
	.section .exceptions.soft, "xa"
soft_exceptions:
	ldw		et, 0(ea)				# Load the instruction where the interrupt occured.
  800150:	ee000017 	ldw	et,0(ea)
	movhi	at, %hi(0x003B683A)		# Load the registers with the trap instruction code
  800154:	00400ef4 	movhi	at,59
	ori		at, at, %lo(0x003B683A)
  800158:	085a0e94 	ori	at,at,26682
   	cmpne	et, et, at				# Compare the trap instruction code to the last excuted instruction
  80015c:	c070c03a 	cmpne	et,et,at
  	beq		et, r0, call_scheduler	# its a trap so switchcontext
  800160:	c0000226 	beq	et,zero,80016c <call_scheduler>
  	break							# This is an un-implemented instruction or muldiv problem.
  800164:	003da03a 	break	0
  	br		restore_context			# its something else
  800168:	003fda06 	br	8000d4 <__alt_data_end+0xfff000d4>

0080016c <call_scheduler>:

call_scheduler:
	addi	ea, ea, 4						# A trap was called, increment the program counter so it is not called again.
  80016c:	ef400104 	addi	ea,ea,4
	stw		ea, 72(sp)						# Save the new program counter to the context.
  800170:	df401215 	stw	ea,72(sp)
	call	vTaskSwitchContext				# Pick the next context.
  800174:	0802e700 	call	802e70 <vTaskSwitchContext>
	br		restore_sp_from_pxCurrentTCB	# Switch in the task context and restore. 
  800178:	003fd206 	br	8000c4 <__alt_data_end+0xfff000c4>

0080017c <alt_irq_handler>:
 * instruction is present if the macro ALT_CI_INTERRUPT_VECTOR defined.
 */

void alt_irq_handler (void) __attribute__ ((section (".exceptions")));
void alt_irq_handler (void)
{
  80017c:	defff904 	addi	sp,sp,-28
  800180:	dfc00615 	stw	ra,24(sp)
  800184:	df000515 	stw	fp,20(sp)
  800188:	df000504 	addi	fp,sp,20
  
  /*
   * Notify the operating system that we are at interrupt level.
   */ 
  
  ALT_OS_INT_ENTER();
  80018c:	0001883a 	nop
#ifndef NIOS2_EIC_PRESENT
static ALT_INLINE alt_u32 ALT_ALWAYS_INLINE alt_irq_pending (void)
{
  alt_u32 active;

  NIOS2_READ_IPENDING (active);
  800190:	0005313a 	rdctl	r2,ipending
  800194:	e0bffe15 	stw	r2,-8(fp)

  return active;
  800198:	e0bffe17 	ldw	r2,-8(fp)
   * Consider the case where the high priority interupt is asserted during
   * the interrupt entry sequence for a lower priority interrupt to see why
   * this is the case.
   */

  active = alt_irq_pending ();
  80019c:	e0bffb15 	stw	r2,-20(fp)

  do
  {
    i = 0;
  8001a0:	e03ffd15 	stw	zero,-12(fp)
    mask = 1;
  8001a4:	00800044 	movi	r2,1
  8001a8:	e0bffc15 	stw	r2,-16(fp)
     * called to clear the interrupt condition.
     */

    do
    {
      if (active & mask)
  8001ac:	e0fffb17 	ldw	r3,-20(fp)
  8001b0:	e0bffc17 	ldw	r2,-16(fp)
  8001b4:	1884703a 	and	r2,r3,r2
  8001b8:	10001426 	beq	r2,zero,80020c <alt_irq_handler+0x90>
      { 
#ifdef ALT_ENHANCED_INTERRUPT_API_PRESENT
        alt_irq[i].handler(alt_irq[i].context); 
  8001bc:	008020f4 	movhi	r2,131
  8001c0:	10add604 	addi	r2,r2,-18600
  8001c4:	e0fffd17 	ldw	r3,-12(fp)
  8001c8:	180690fa 	slli	r3,r3,3
  8001cc:	10c5883a 	add	r2,r2,r3
  8001d0:	10c00017 	ldw	r3,0(r2)
  8001d4:	008020f4 	movhi	r2,131
  8001d8:	10add604 	addi	r2,r2,-18600
  8001dc:	e13ffd17 	ldw	r4,-12(fp)
  8001e0:	200890fa 	slli	r4,r4,3
  8001e4:	1105883a 	add	r2,r2,r4
  8001e8:	10800104 	addi	r2,r2,4
  8001ec:	10800017 	ldw	r2,0(r2)
  8001f0:	1009883a 	mov	r4,r2
  8001f4:	183ee83a 	callr	r3
#else
        alt_irq[i].handler(alt_irq[i].context, i); 
#endif
        break;
  8001f8:	0001883a 	nop
#ifndef NIOS2_EIC_PRESENT
static ALT_INLINE alt_u32 ALT_ALWAYS_INLINE alt_irq_pending (void)
{
  alt_u32 active;

  NIOS2_READ_IPENDING (active);
  8001fc:	0005313a 	rdctl	r2,ipending
  800200:	e0bfff15 	stw	r2,-4(fp)

  return active;
  800204:	e0bfff17 	ldw	r2,-4(fp)
  800208:	00000706 	br	800228 <alt_irq_handler+0xac>
      }
      mask <<= 1;
  80020c:	e0bffc17 	ldw	r2,-16(fp)
  800210:	1085883a 	add	r2,r2,r2
  800214:	e0bffc15 	stw	r2,-16(fp)
      i++;
  800218:	e0bffd17 	ldw	r2,-12(fp)
  80021c:	10800044 	addi	r2,r2,1
  800220:	e0bffd15 	stw	r2,-12(fp)

    } while (1);
  800224:	003fe106 	br	8001ac <__alt_data_end+0xfff001ac>

    active = alt_irq_pending ();
  800228:	e0bffb15 	stw	r2,-20(fp)
    
  } while (active);
  80022c:	e0bffb17 	ldw	r2,-20(fp)
  800230:	103fdb1e 	bne	r2,zero,8001a0 <__alt_data_end+0xfff001a0>

  /*
   * Notify the operating system that interrupt processing is complete.
   */ 

  ALT_OS_INT_EXIT();
  800234:	0001883a 	nop
}
  800238:	0001883a 	nop
  80023c:	e037883a 	mov	sp,fp
  800240:	dfc00117 	ldw	ra,4(sp)
  800244:	df000017 	ldw	fp,0(sp)
  800248:	dec00204 	addi	sp,sp,8
  80024c:	f800283a 	ret

Disassembly of section .text:

00800250 <_start>:

    /*
     * Now that the caches are initialized, set up the stack pointer and global pointer.
     * The values provided by the linker are assumed to be correctly aligned.
     */
    movhi sp, %hi(__alt_stack_pointer)
  800250:	06c02434 	movhi	sp,144
    ori sp, sp, %lo(__alt_stack_pointer)
  800254:	dec00014 	ori	sp,sp,0
    movhi gp, %hi(_gp)
  800258:	068020b4 	movhi	gp,130
    ori gp, gp, %lo(_gp)
  80025c:	d68d3814 	ori	gp,gp,13536
 */
#ifndef ALT_SIM_OPTIMIZE
    /* Log that the BSS is about to be cleared. */
    ALT_LOG_PUTS(alt_log_msg_bss)

    movhi r2, %hi(__bss_start)
  800260:	00802074 	movhi	r2,129
    ori r2, r2, %lo(__bss_start)
  800264:	10ad5814 	ori	r2,r2,46432

    movhi r3, %hi(__bss_end)
  800268:	00c020b4 	movhi	r3,130
    ori r3, r3, %lo(__bss_end)
  80026c:	18ee1614 	ori	r3,r3,47192

    beq r2, r3, 1f
  800270:	10c00326 	beq	r2,r3,800280 <_start+0x30>

0:
    stw zero, (r2)
  800274:	10000015 	stw	zero,0(r2)
    addi r2, r2, 4
  800278:	10800104 	addi	r2,r2,4
    bltu r2, r3, 0b
  80027c:	10fffd36 	bltu	r2,r3,800274 <__alt_data_end+0xfff00274>

    /* Log that alt_main is about to be called. */
    ALT_LOG_PUTS(alt_log_msg_alt_main)

    /* Call the C entry point. It should never return. */
    call alt_main
  800280:	080f8640 	call	80f864 <alt_main>

00800284 <alt_after_alt_main>:

    /* Wait in infinite loop in case alt_main does return. */
alt_after_alt_main:
    br alt_after_alt_main
  800284:	003fff06 	br	800284 <__alt_data_end+0xfff00284>

00800288 <vListInitialise>:
/*-----------------------------------------------------------
 * PUBLIC LIST API documented in list.h
 *----------------------------------------------------------*/

void vListInitialise( List_t * const pxList )
{
  800288:	defffe04 	addi	sp,sp,-8
  80028c:	df000115 	stw	fp,4(sp)
  800290:	df000104 	addi	fp,sp,4
  800294:	e13fff15 	stw	r4,-4(fp)
	/* The list structure contains a list item which is used to mark the
	end of the list.  To initialise the list the list end is inserted
	as the only list entry. */
	pxList->pxIndex = ( ListItem_t * ) &( pxList->xListEnd );			/*lint !e826 !e740 The mini list structure is used as the list end to save RAM.  This is checked and valid. */
  800298:	e0bfff17 	ldw	r2,-4(fp)
  80029c:	10c00204 	addi	r3,r2,8
  8002a0:	e0bfff17 	ldw	r2,-4(fp)
  8002a4:	10c00115 	stw	r3,4(r2)

	/* The list end value is the highest possible value in the list to
	ensure it remains at the end of the list. */
	pxList->xListEnd.xItemValue = portMAX_DELAY;
  8002a8:	e0bfff17 	ldw	r2,-4(fp)
  8002ac:	00ffffc4 	movi	r3,-1
  8002b0:	10c00215 	stw	r3,8(r2)

	/* The list end next and previous pointers point to itself so we know
	when the list is empty. */
	pxList->xListEnd.pxNext = ( ListItem_t * ) &( pxList->xListEnd );	/*lint !e826 !e740 The mini list structure is used as the list end to save RAM.  This is checked and valid. */
  8002b4:	e0bfff17 	ldw	r2,-4(fp)
  8002b8:	10c00204 	addi	r3,r2,8
  8002bc:	e0bfff17 	ldw	r2,-4(fp)
  8002c0:	10c00315 	stw	r3,12(r2)
	pxList->xListEnd.pxPrevious = ( ListItem_t * ) &( pxList->xListEnd );/*lint !e826 !e740 The mini list structure is used as the list end to save RAM.  This is checked and valid. */
  8002c4:	e0bfff17 	ldw	r2,-4(fp)
  8002c8:	10c00204 	addi	r3,r2,8
  8002cc:	e0bfff17 	ldw	r2,-4(fp)
  8002d0:	10c00415 	stw	r3,16(r2)

	pxList->uxNumberOfItems = ( UBaseType_t ) 0U;
  8002d4:	e0bfff17 	ldw	r2,-4(fp)
  8002d8:	10000015 	stw	zero,0(r2)

	/* Write known values into the list if
	configUSE_LIST_DATA_INTEGRITY_CHECK_BYTES is set to 1. */
	listSET_LIST_INTEGRITY_CHECK_1_VALUE( pxList );
	listSET_LIST_INTEGRITY_CHECK_2_VALUE( pxList );
}
  8002dc:	0001883a 	nop
  8002e0:	e037883a 	mov	sp,fp
  8002e4:	df000017 	ldw	fp,0(sp)
  8002e8:	dec00104 	addi	sp,sp,4
  8002ec:	f800283a 	ret

008002f0 <vListInitialiseItem>:
/*-----------------------------------------------------------*/

void vListInitialiseItem( ListItem_t * const pxItem )
{
  8002f0:	defffe04 	addi	sp,sp,-8
  8002f4:	df000115 	stw	fp,4(sp)
  8002f8:	df000104 	addi	fp,sp,4
  8002fc:	e13fff15 	stw	r4,-4(fp)
	/* Make sure the list item is not recorded as being on a list. */
	pxItem->pvContainer = NULL;
  800300:	e0bfff17 	ldw	r2,-4(fp)
  800304:	10000415 	stw	zero,16(r2)

	/* Write known values into the list item if
	configUSE_LIST_DATA_INTEGRITY_CHECK_BYTES is set to 1. */
	listSET_FIRST_LIST_ITEM_INTEGRITY_CHECK_VALUE( pxItem );
	listSET_SECOND_LIST_ITEM_INTEGRITY_CHECK_VALUE( pxItem );
}
  800308:	0001883a 	nop
  80030c:	e037883a 	mov	sp,fp
  800310:	df000017 	ldw	fp,0(sp)
  800314:	dec00104 	addi	sp,sp,4
  800318:	f800283a 	ret

0080031c <vListInsertEnd>:
/*-----------------------------------------------------------*/

void vListInsertEnd( List_t * const pxList, ListItem_t * const pxNewListItem )
{
  80031c:	defffc04 	addi	sp,sp,-16
  800320:	df000315 	stw	fp,12(sp)
  800324:	df000304 	addi	fp,sp,12
  800328:	e13ffe15 	stw	r4,-8(fp)
  80032c:	e17fff15 	stw	r5,-4(fp)
ListItem_t * const pxIndex = pxList->pxIndex;
  800330:	e0bffe17 	ldw	r2,-8(fp)
  800334:	10800117 	ldw	r2,4(r2)
  800338:	e0bffd15 	stw	r2,-12(fp)
	listTEST_LIST_ITEM_INTEGRITY( pxNewListItem );

	/* Insert a new list item into pxList, but rather than sort the list,
	makes the new list item the last item to be removed by a call to
	listGET_OWNER_OF_NEXT_ENTRY(). */
	pxNewListItem->pxNext = pxIndex;
  80033c:	e0bfff17 	ldw	r2,-4(fp)
  800340:	e0fffd17 	ldw	r3,-12(fp)
  800344:	10c00115 	stw	r3,4(r2)
	pxNewListItem->pxPrevious = pxIndex->pxPrevious;
  800348:	e0bffd17 	ldw	r2,-12(fp)
  80034c:	10c00217 	ldw	r3,8(r2)
  800350:	e0bfff17 	ldw	r2,-4(fp)
  800354:	10c00215 	stw	r3,8(r2)

	/* Only used during decision coverage testing. */
	mtCOVERAGE_TEST_DELAY();

	pxIndex->pxPrevious->pxNext = pxNewListItem;
  800358:	e0bffd17 	ldw	r2,-12(fp)
  80035c:	10800217 	ldw	r2,8(r2)
  800360:	e0ffff17 	ldw	r3,-4(fp)
  800364:	10c00115 	stw	r3,4(r2)
	pxIndex->pxPrevious = pxNewListItem;
  800368:	e0bffd17 	ldw	r2,-12(fp)
  80036c:	e0ffff17 	ldw	r3,-4(fp)
  800370:	10c00215 	stw	r3,8(r2)

	/* Remember which list the item is in. */
	pxNewListItem->pvContainer = ( void * ) pxList;
  800374:	e0bfff17 	ldw	r2,-4(fp)
  800378:	e0fffe17 	ldw	r3,-8(fp)
  80037c:	10c00415 	stw	r3,16(r2)

	( pxList->uxNumberOfItems )++;
  800380:	e0bffe17 	ldw	r2,-8(fp)
  800384:	10800017 	ldw	r2,0(r2)
  800388:	10c00044 	addi	r3,r2,1
  80038c:	e0bffe17 	ldw	r2,-8(fp)
  800390:	10c00015 	stw	r3,0(r2)
}
  800394:	0001883a 	nop
  800398:	e037883a 	mov	sp,fp
  80039c:	df000017 	ldw	fp,0(sp)
  8003a0:	dec00104 	addi	sp,sp,4
  8003a4:	f800283a 	ret

008003a8 <vListInsert>:
/*-----------------------------------------------------------*/

void vListInsert( List_t * const pxList, ListItem_t * const pxNewListItem )
{
  8003a8:	defffb04 	addi	sp,sp,-20
  8003ac:	df000415 	stw	fp,16(sp)
  8003b0:	df000404 	addi	fp,sp,16
  8003b4:	e13ffe15 	stw	r4,-8(fp)
  8003b8:	e17fff15 	stw	r5,-4(fp)
ListItem_t *pxIterator;
const TickType_t xValueOfInsertion = pxNewListItem->xItemValue;
  8003bc:	e0bfff17 	ldw	r2,-4(fp)
  8003c0:	10800017 	ldw	r2,0(r2)
  8003c4:	e0bffd15 	stw	r2,-12(fp)
	new list item should be placed after it.  This ensures that TCB's which are
	stored in ready lists (all of which have the same xItemValue value) get a
	share of the CPU.  However, if the xItemValue is the same as the back marker
	the iteration loop below will not end.  Therefore the value is checked
	first, and the algorithm slightly modified if necessary. */
	if( xValueOfInsertion == portMAX_DELAY )
  8003c8:	e0bffd17 	ldw	r2,-12(fp)
  8003cc:	10bfffd8 	cmpnei	r2,r2,-1
  8003d0:	1000041e 	bne	r2,zero,8003e4 <vListInsert+0x3c>
	{
		pxIterator = pxList->xListEnd.pxPrevious;
  8003d4:	e0bffe17 	ldw	r2,-8(fp)
  8003d8:	10800417 	ldw	r2,16(r2)
  8003dc:	e0bffc15 	stw	r2,-16(fp)
  8003e0:	00000c06 	br	800414 <vListInsert+0x6c>
			4) Using a queue or semaphore before it has been initialised or
			   before the scheduler has been started (are interrupts firing
			   before vTaskStartScheduler() has been called?).
		**********************************************************************/

		for( pxIterator = ( ListItem_t * ) &( pxList->xListEnd ); pxIterator->pxNext->xItemValue <= xValueOfInsertion; pxIterator = pxIterator->pxNext ) /*lint !e826 !e740 The mini list structure is used as the list end to save RAM.  This is checked and valid. */
  8003e4:	e0bffe17 	ldw	r2,-8(fp)
  8003e8:	10800204 	addi	r2,r2,8
  8003ec:	e0bffc15 	stw	r2,-16(fp)
  8003f0:	00000306 	br	800400 <vListInsert+0x58>
  8003f4:	e0bffc17 	ldw	r2,-16(fp)
  8003f8:	10800117 	ldw	r2,4(r2)
  8003fc:	e0bffc15 	stw	r2,-16(fp)
  800400:	e0bffc17 	ldw	r2,-16(fp)
  800404:	10800117 	ldw	r2,4(r2)
  800408:	10800017 	ldw	r2,0(r2)
  80040c:	e0fffd17 	ldw	r3,-12(fp)
  800410:	18bff82e 	bgeu	r3,r2,8003f4 <__alt_data_end+0xfff003f4>
			/* There is nothing to do here, just iterating to the wanted
			insertion position. */
		}
	}

	pxNewListItem->pxNext = pxIterator->pxNext;
  800414:	e0bffc17 	ldw	r2,-16(fp)
  800418:	10c00117 	ldw	r3,4(r2)
  80041c:	e0bfff17 	ldw	r2,-4(fp)
  800420:	10c00115 	stw	r3,4(r2)
	pxNewListItem->pxNext->pxPrevious = pxNewListItem;
  800424:	e0bfff17 	ldw	r2,-4(fp)
  800428:	10800117 	ldw	r2,4(r2)
  80042c:	e0ffff17 	ldw	r3,-4(fp)
  800430:	10c00215 	stw	r3,8(r2)
	pxNewListItem->pxPrevious = pxIterator;
  800434:	e0bfff17 	ldw	r2,-4(fp)
  800438:	e0fffc17 	ldw	r3,-16(fp)
  80043c:	10c00215 	stw	r3,8(r2)
	pxIterator->pxNext = pxNewListItem;
  800440:	e0bffc17 	ldw	r2,-16(fp)
  800444:	e0ffff17 	ldw	r3,-4(fp)
  800448:	10c00115 	stw	r3,4(r2)

	/* Remember which list the item is in.  This allows fast removal of the
	item later. */
	pxNewListItem->pvContainer = ( void * ) pxList;
  80044c:	e0bfff17 	ldw	r2,-4(fp)
  800450:	e0fffe17 	ldw	r3,-8(fp)
  800454:	10c00415 	stw	r3,16(r2)

	( pxList->uxNumberOfItems )++;
  800458:	e0bffe17 	ldw	r2,-8(fp)
  80045c:	10800017 	ldw	r2,0(r2)
  800460:	10c00044 	addi	r3,r2,1
  800464:	e0bffe17 	ldw	r2,-8(fp)
  800468:	10c00015 	stw	r3,0(r2)
}
  80046c:	0001883a 	nop
  800470:	e037883a 	mov	sp,fp
  800474:	df000017 	ldw	fp,0(sp)
  800478:	dec00104 	addi	sp,sp,4
  80047c:	f800283a 	ret

00800480 <uxListRemove>:
/*-----------------------------------------------------------*/

UBaseType_t uxListRemove( ListItem_t * const pxItemToRemove )
{
  800480:	defffd04 	addi	sp,sp,-12
  800484:	df000215 	stw	fp,8(sp)
  800488:	df000204 	addi	fp,sp,8
  80048c:	e13fff15 	stw	r4,-4(fp)
/* The list item knows which list it is in.  Obtain the list from the list
item. */
List_t * const pxList = ( List_t * ) pxItemToRemove->pvContainer;
  800490:	e0bfff17 	ldw	r2,-4(fp)
  800494:	10800417 	ldw	r2,16(r2)
  800498:	e0bffe15 	stw	r2,-8(fp)

	pxItemToRemove->pxNext->pxPrevious = pxItemToRemove->pxPrevious;
  80049c:	e0bfff17 	ldw	r2,-4(fp)
  8004a0:	10800117 	ldw	r2,4(r2)
  8004a4:	e0ffff17 	ldw	r3,-4(fp)
  8004a8:	18c00217 	ldw	r3,8(r3)
  8004ac:	10c00215 	stw	r3,8(r2)
	pxItemToRemove->pxPrevious->pxNext = pxItemToRemove->pxNext;
  8004b0:	e0bfff17 	ldw	r2,-4(fp)
  8004b4:	10800217 	ldw	r2,8(r2)
  8004b8:	e0ffff17 	ldw	r3,-4(fp)
  8004bc:	18c00117 	ldw	r3,4(r3)
  8004c0:	10c00115 	stw	r3,4(r2)

	/* Only used during decision coverage testing. */
	mtCOVERAGE_TEST_DELAY();

	/* Make sure the index is left pointing to a valid item. */
	if( pxList->pxIndex == pxItemToRemove )
  8004c4:	e0bffe17 	ldw	r2,-8(fp)
  8004c8:	10c00117 	ldw	r3,4(r2)
  8004cc:	e0bfff17 	ldw	r2,-4(fp)
  8004d0:	1880041e 	bne	r3,r2,8004e4 <uxListRemove+0x64>
	{
		pxList->pxIndex = pxItemToRemove->pxPrevious;
  8004d4:	e0bfff17 	ldw	r2,-4(fp)
  8004d8:	10c00217 	ldw	r3,8(r2)
  8004dc:	e0bffe17 	ldw	r2,-8(fp)
  8004e0:	10c00115 	stw	r3,4(r2)
	else
	{
		mtCOVERAGE_TEST_MARKER();
	}

	pxItemToRemove->pvContainer = NULL;
  8004e4:	e0bfff17 	ldw	r2,-4(fp)
  8004e8:	10000415 	stw	zero,16(r2)
	( pxList->uxNumberOfItems )--;
  8004ec:	e0bffe17 	ldw	r2,-8(fp)
  8004f0:	10800017 	ldw	r2,0(r2)
  8004f4:	10ffffc4 	addi	r3,r2,-1
  8004f8:	e0bffe17 	ldw	r2,-8(fp)
  8004fc:	10c00015 	stw	r3,0(r2)

	return pxList->uxNumberOfItems;
  800500:	e0bffe17 	ldw	r2,-8(fp)
  800504:	10800017 	ldw	r2,0(r2)
}
  800508:	e037883a 	mov	sp,fp
  80050c:	df000017 	ldw	fp,0(sp)
  800510:	dec00104 	addi	sp,sp,4
  800514:	f800283a 	ret

00800518 <prvReadGp>:
  void vPortSysTickHandler( void * context, alt_u32 id );
#endif
/*-----------------------------------------------------------*/

void prvReadGp( unsigned long *ulValue )
{
  800518:	defffe04 	addi	sp,sp,-8
  80051c:	df000115 	stw	fp,4(sp)
  800520:	df000104 	addi	fp,sp,4
  800524:	e13fff15 	stw	r4,-4(fp)
	asm( "stw gp, (r4) " );
  800528:	26800015 	stw	gp,0(r4)
};
  80052c:	0001883a 	nop
  800530:	e037883a 	mov	sp,fp
  800534:	df000017 	ldw	fp,0(sp)
  800538:	dec00104 	addi	sp,sp,4
  80053c:	f800283a 	ret

00800540 <pxPortInitialiseStack>:

/*
 * See header file for description.
 */
portSTACK_TYPE *pxPortInitialiseStack( portSTACK_TYPE *pxTopOfStack, pdTASK_CODE pxCode, void *pvParameters )
{
  800540:	defff904 	addi	sp,sp,-28
  800544:	dfc00615 	stw	ra,24(sp)
  800548:	df000515 	stw	fp,20(sp)
  80054c:	df000504 	addi	fp,sp,20
  800550:	e13ffd15 	stw	r4,-12(fp)
  800554:	e17ffe15 	stw	r5,-8(fp)
  800558:	e1bfff15 	stw	r6,-4(fp)
portSTACK_TYPE *pxFramePointer = pxTopOfStack - 1;
  80055c:	e0bffd17 	ldw	r2,-12(fp)
  800560:	10bfff04 	addi	r2,r2,-4
  800564:	e0bffb15 	stw	r2,-20(fp)
portSTACK_TYPE xGlobalPointer;

    prvReadGp( &xGlobalPointer );
  800568:	e0bffc04 	addi	r2,fp,-16
  80056c:	1009883a 	mov	r4,r2
  800570:	08005180 	call	800518 <prvReadGp>

    /* End of stack marker. */
    *pxTopOfStack = 0xdeadbeef;
  800574:	e0fffd17 	ldw	r3,-12(fp)
  800578:	00b7abb4 	movhi	r2,57006
  80057c:	10afbbc4 	addi	r2,r2,-16657
  800580:	18800015 	stw	r2,0(r3)
    pxTopOfStack--;
  800584:	e0bffd17 	ldw	r2,-12(fp)
  800588:	10bfff04 	addi	r2,r2,-4
  80058c:	e0bffd15 	stw	r2,-12(fp)

    *pxTopOfStack = ( portSTACK_TYPE ) pxFramePointer;
  800590:	e0fffb17 	ldw	r3,-20(fp)
  800594:	e0bffd17 	ldw	r2,-12(fp)
  800598:	10c00015 	stw	r3,0(r2)
    pxTopOfStack--;
  80059c:	e0bffd17 	ldw	r2,-12(fp)
  8005a0:	10bfff04 	addi	r2,r2,-4
  8005a4:	e0bffd15 	stw	r2,-12(fp)

    *pxTopOfStack = xGlobalPointer;
  8005a8:	e0fffc17 	ldw	r3,-16(fp)
  8005ac:	e0bffd17 	ldw	r2,-12(fp)
  8005b0:	10c00015 	stw	r3,0(r2)

    /* Space for R23 to R16. */
    pxTopOfStack -= 9;
  8005b4:	e0bffd17 	ldw	r2,-12(fp)
  8005b8:	10bff704 	addi	r2,r2,-36
  8005bc:	e0bffd15 	stw	r2,-12(fp)

    *pxTopOfStack = ( portSTACK_TYPE ) pxCode;
  8005c0:	e0fffe17 	ldw	r3,-8(fp)
  8005c4:	e0bffd17 	ldw	r2,-12(fp)
  8005c8:	10c00015 	stw	r3,0(r2)
    pxTopOfStack--;
  8005cc:	e0bffd17 	ldw	r2,-12(fp)
  8005d0:	10bfff04 	addi	r2,r2,-4
  8005d4:	e0bffd15 	stw	r2,-12(fp)

    *pxTopOfStack = portINITIAL_ESTATUS;
  8005d8:	e0bffd17 	ldw	r2,-12(fp)
  8005dc:	00c00044 	movi	r3,1
  8005e0:	10c00015 	stw	r3,0(r2)

    /* Space for R15 to R5. */
    pxTopOfStack -= 12;
  8005e4:	e0bffd17 	ldw	r2,-12(fp)
  8005e8:	10bff404 	addi	r2,r2,-48
  8005ec:	e0bffd15 	stw	r2,-12(fp)

    *pxTopOfStack = ( portSTACK_TYPE ) pvParameters;
  8005f0:	e0ffff17 	ldw	r3,-4(fp)
  8005f4:	e0bffd17 	ldw	r2,-12(fp)
  8005f8:	10c00015 	stw	r3,0(r2)

    /* Space for R3 to R1, muldiv and RA. */
    pxTopOfStack -= 5;
  8005fc:	e0bffd17 	ldw	r2,-12(fp)
  800600:	10bffb04 	addi	r2,r2,-20
  800604:	e0bffd15 	stw	r2,-12(fp)

    return pxTopOfStack;
  800608:	e0bffd17 	ldw	r2,-12(fp)
}
  80060c:	e037883a 	mov	sp,fp
  800610:	dfc00117 	ldw	ra,4(sp)
  800614:	df000017 	ldw	fp,0(sp)
  800618:	dec00204 	addi	sp,sp,8
  80061c:	f800283a 	ret

00800620 <xPortStartScheduler>:

/*
 * See header file for description.
 */
portBASE_TYPE xPortStartScheduler( void )
{
  800620:	defffe04 	addi	sp,sp,-8
  800624:	dfc00115 	stw	ra,4(sp)
  800628:	df000015 	stw	fp,0(sp)
  80062c:	d839883a 	mov	fp,sp
	/* Start the timer that generates the tick ISR.  Interrupts are disabled
	here already. */
	prvSetupTimerInterrupt();
  800630:	08006780 	call	800678 <prvSetupTimerInterrupt>
  800634:	00802034 	movhi	r2,128

	/* Start the first task. */
    asm volatile (  " movia r2, restore_sp_from_pxCurrentTCB        \n"
  800638:	10803104 	addi	r2,r2,196
  80063c:	1000683a 	jmp	r2
                    " jmp r2                                          " );

	/* Should not get here! */
	return 0;
  800640:	0005883a 	mov	r2,zero
}
  800644:	e037883a 	mov	sp,fp
  800648:	dfc00117 	ldw	ra,4(sp)
  80064c:	df000017 	ldw	fp,0(sp)
  800650:	dec00204 	addi	sp,sp,8
  800654:	f800283a 	ret

00800658 <vPortEndScheduler>:
/*-----------------------------------------------------------*/

void vPortEndScheduler( void )
{
  800658:	deffff04 	addi	sp,sp,-4
  80065c:	df000015 	stw	fp,0(sp)
  800660:	d839883a 	mov	fp,sp
	/* It is unlikely that the NIOS2 port will require this function as there
	is nothing to return to.  */
}
  800664:	0001883a 	nop
  800668:	e037883a 	mov	sp,fp
  80066c:	df000017 	ldw	fp,0(sp)
  800670:	dec00104 	addi	sp,sp,4
  800674:	f800283a 	ret

00800678 <prvSetupTimerInterrupt>:
/*
 * Setup the systick timer to generate the tick interrupts at the required
 * frequency.
 */
void prvSetupTimerInterrupt( void )
{
  800678:	defffd04 	addi	sp,sp,-12
  80067c:	dfc00215 	stw	ra,8(sp)
  800680:	df000115 	stw	fp,4(sp)
  800684:	df000104 	addi	fp,sp,4
	/* Try to register the interrupt handler. */
	//cjr Jul-1-2010 new API
#ifdef ALT_ENHANCED_INTERRUPT_API_PRESENT
	if ( -EINVAL ==     alt_ic_isr_register(SYS_CLK_IRQ_INTERRUPT_CONTROLLER_ID, SYS_CLK_IRQ,
  800688:	d8000015 	stw	zero,0(sp)
  80068c:	000f883a 	mov	r7,zero
  800690:	01802034 	movhi	r6,128
  800694:	3181c204 	addi	r6,r6,1800
  800698:	01400044 	movi	r5,1
  80069c:	0009883a 	mov	r4,zero
  8006a0:	080f6b40 	call	80f6b4 <alt_ic_isr_register>
  8006a4:	10bffa98 	cmpnei	r2,r2,-22
  8006a8:	1000021e 	bne	r2,zero,8006b4 <prvSetupTimerInterrupt+0x3c>
#else
	if ( -EINVAL == alt_irq_register( SYS_CLK_IRQ, 0x0, vPortSysTickHandler ) )
#endif
	{
		/* Failed to install the Interrupt Handler. */
		asm( "break" );
  8006ac:	003da03a 	break	0
  8006b0:	00000c06 	br	8006e4 <prvSetupTimerInterrupt+0x6c>
	}
	else
	{
		/* Configure SysTick to interrupt at the requested rate. */
		IOWR_ALTERA_AVALON_TIMER_CONTROL( SYS_CLK_BASE, ALTERA_AVALON_TIMER_CONTROL_STOP_MSK );
  8006b4:	00c00204 	movi	r3,8
  8006b8:	00840904 	movi	r2,4132
  8006bc:	10c00035 	stwio	r3,0(r2)
		IOWR_ALTERA_AVALON_TIMER_PERIODL( SYS_CLK_BASE, ( configCPU_CLOCK_HZ / configTICK_RATE_HZ ) & 0xFFFF );
  8006c0:	00f0d414 	movui	r3,50000
  8006c4:	00840a04 	movi	r2,4136
  8006c8:	10c00035 	stwio	r3,0(r2)
		IOWR_ALTERA_AVALON_TIMER_PERIODH( SYS_CLK_BASE, ( configCPU_CLOCK_HZ / configTICK_RATE_HZ ) >> 16 );
  8006cc:	0007883a 	mov	r3,zero
  8006d0:	00840b04 	movi	r2,4140
  8006d4:	10c00035 	stwio	r3,0(r2)
		IOWR_ALTERA_AVALON_TIMER_CONTROL( SYS_CLK_BASE, ALTERA_AVALON_TIMER_CONTROL_CONT_MSK | ALTERA_AVALON_TIMER_CONTROL_START_MSK | ALTERA_AVALON_TIMER_CONTROL_ITO_MSK );
  8006d8:	00c001c4 	movi	r3,7
  8006dc:	00840904 	movi	r2,4132
  8006e0:	10c00035 	stwio	r3,0(r2)
	}

	/* Clear any already pending interrupts generated by the Timer. */
	IOWR_ALTERA_AVALON_TIMER_STATUS( SYS_CLK_BASE, ~ALTERA_AVALON_TIMER_STATUS_TO_MSK );
  8006e4:	00ffff84 	movi	r3,-2
  8006e8:	00840804 	movi	r2,4128
  8006ec:	10c00035 	stwio	r3,0(r2)
}
  8006f0:	0001883a 	nop
  8006f4:	e037883a 	mov	sp,fp
  8006f8:	dfc00117 	ldw	ra,4(sp)
  8006fc:	df000017 	ldw	fp,0(sp)
  800700:	dec00204 	addi	sp,sp,8
  800704:	f800283a 	ret

00800708 <vPortSysTickHandler>:
#ifdef ALT_ENHANCED_INTERRUPT_API_PRESENT
void vPortSysTickHandler( void * context )
#else
void vPortSysTickHandler( void * context, alt_u32 id )
#endif
{
  800708:	defffd04 	addi	sp,sp,-12
  80070c:	dfc00215 	stw	ra,8(sp)
  800710:	df000115 	stw	fp,4(sp)
  800714:	df000104 	addi	fp,sp,4
  800718:	e13fff15 	stw	r4,-4(fp)
	/* Increment the Kernel Tick. */
	//vTaskIncrementTick();
	(void)xTaskIncrementTick();
  80071c:	0802c900 	call	802c90 <xTaskIncrementTick>

	/* If using preemption, also force a context switch. */
	#if configUSE_PREEMPTION == 1
        vTaskSwitchContext();
  800720:	0802e700 	call	802e70 <vTaskSwitchContext>
	#endif

	/* Clear the interrupt. */
	IOWR_ALTERA_AVALON_TIMER_STATUS( SYS_CLK_BASE, ~ALTERA_AVALON_TIMER_STATUS_TO_MSK );
  800724:	00ffff84 	movi	r3,-2
  800728:	00840804 	movi	r2,4128
  80072c:	10c00035 	stwio	r3,0(r2)
}
  800730:	0001883a 	nop
  800734:	e037883a 	mov	sp,fp
  800738:	dfc00117 	ldw	ra,4(sp)
  80073c:	df000017 	ldw	fp,0(sp)
  800740:	dec00204 	addi	sp,sp,8
  800744:	f800283a 	ret

00800748 <alt_irq_register>:
#ifndef ALT_ENHANCED_INTERRUPT_API_PRESENT
int alt_irq_register( alt_u32 id, void* context, void (*handler)(void*, alt_u32) )
#else
int alt_irq_register( alt_u32 id, void* context, alt_isr_func handler )
#endif
{
  800748:	defff104 	addi	sp,sp,-60
  80074c:	df000e15 	stw	fp,56(sp)
  800750:	df000e04 	addi	fp,sp,56
  800754:	e13ffd15 	stw	r4,-12(fp)
  800758:	e17ffe15 	stw	r5,-8(fp)
  80075c:	e1bfff15 	stw	r6,-4(fp)
	int rc = -EINVAL;
  800760:	00bffa84 	movi	r2,-22
  800764:	e0bff215 	stw	r2,-56(fp)
	alt_irq_context status;

	if (id < ALT_NIRQ)
  800768:	e0bffd17 	ldw	r2,-12(fp)
  80076c:	10800828 	cmpgeui	r2,r2,32
  800770:	10004c1e 	bne	r2,zero,8008a4 <alt_irq_register+0x15c>
static ALT_INLINE alt_irq_context ALT_ALWAYS_INLINE 
       alt_irq_disable_all (void)
{
  alt_irq_context context;

  NIOS2_READ_STATUS (context);
  800774:	0005303a 	rdctl	r2,status
  800778:	e0bff615 	stw	r2,-40(fp)

  NIOS2_WRITE_STATUS (context & ~NIOS2_STATUS_PIE_MSK);
  80077c:	e0fff617 	ldw	r3,-40(fp)
  800780:	00bfff84 	movi	r2,-2
  800784:	1884703a 	and	r2,r3,r2
  800788:	1001703a 	wrctl	status,r2
  
  return context;
  80078c:	e0bff617 	ldw	r2,-40(fp)
		 * interrupts are disabled while the handler tables are updated to ensure
		 * that an interrupt doesn't occur while the tables are in an inconsistent
		 * state.
		 */

		status = alt_irq_disable_all ();
  800790:	e0bff415 	stw	r2,-48(fp)

		alt_irq[id].handler = handler;
  800794:	008020f4 	movhi	r2,131
  800798:	10add604 	addi	r2,r2,-18600
  80079c:	e0fffd17 	ldw	r3,-12(fp)
  8007a0:	180690fa 	slli	r3,r3,3
  8007a4:	10c5883a 	add	r2,r2,r3
  8007a8:	e0ffff17 	ldw	r3,-4(fp)
  8007ac:	10c00015 	stw	r3,0(r2)
		alt_irq[id].context = context;
  8007b0:	008020f4 	movhi	r2,131
  8007b4:	10add604 	addi	r2,r2,-18600
  8007b8:	e0fffd17 	ldw	r3,-12(fp)
  8007bc:	180690fa 	slli	r3,r3,3
  8007c0:	10c5883a 	add	r2,r2,r3
  8007c4:	10800104 	addi	r2,r2,4
  8007c8:	e0fffe17 	ldw	r3,-8(fp)
  8007cc:	10c00015 	stw	r3,0(r2)

		rc = (handler) ? alt_irq_enable (id): alt_irq_disable (id);
  8007d0:	e0bfff17 	ldw	r2,-4(fp)
  8007d4:	10001926 	beq	r2,zero,80083c <alt_irq_register+0xf4>
  8007d8:	e0bffd17 	ldw	r2,-12(fp)
  8007dc:	e0bff315 	stw	r2,-52(fp)
static ALT_INLINE alt_irq_context ALT_ALWAYS_INLINE 
       alt_irq_disable_all (void)
{
  alt_irq_context context;

  NIOS2_READ_STATUS (context);
  8007e0:	0005303a 	rdctl	r2,status
  8007e4:	e0bff715 	stw	r2,-36(fp)

  NIOS2_WRITE_STATUS (context & ~NIOS2_STATUS_PIE_MSK);
  8007e8:	e0fff717 	ldw	r3,-36(fp)
  8007ec:	00bfff84 	movi	r2,-2
  8007f0:	1884703a 	and	r2,r3,r2
  8007f4:	1001703a 	wrctl	status,r2
  
  return context;
  8007f8:	e0bff717 	ldw	r2,-36(fp)
static ALT_INLINE int ALT_ALWAYS_INLINE alt_irq_enable (alt_u32 id)
{
  alt_irq_context  status;
  extern volatile alt_u32 alt_irq_active;

  status = alt_irq_disable_all ();
  8007fc:	e0bff815 	stw	r2,-32(fp)

  alt_irq_active |= (1 << id);
  800800:	00c00044 	movi	r3,1
  800804:	e0bff317 	ldw	r2,-52(fp)
  800808:	1884983a 	sll	r2,r3,r2
  80080c:	1007883a 	mov	r3,r2
  800810:	d0a03d17 	ldw	r2,-32524(gp)
  800814:	1884b03a 	or	r2,r3,r2
  800818:	d0a03d15 	stw	r2,-32524(gp)
  NIOS2_WRITE_IENABLE (alt_irq_active);
  80081c:	d0a03d17 	ldw	r2,-32524(gp)
  800820:	100170fa 	wrctl	ienable,r2
  800824:	e0bff817 	ldw	r2,-32(fp)
  800828:	e0bff915 	stw	r2,-28(fp)
  status &= ~NIOS2_STATUS_PIE_MSK;
  status |= (context & NIOS2_STATUS_PIE_MSK);
  
  NIOS2_WRITE_STATUS (status);
#else
  NIOS2_WRITE_STATUS (context);
  80082c:	e0bff917 	ldw	r2,-28(fp)
  800830:	1001703a 	wrctl	status,r2

  alt_irq_enable_all(status);

  return 0;
  800834:	0005883a 	mov	r2,zero
  800838:	00001906 	br	8008a0 <alt_irq_register+0x158>
  80083c:	e0bffd17 	ldw	r2,-12(fp)
  800840:	e0bff515 	stw	r2,-44(fp)
static ALT_INLINE alt_irq_context ALT_ALWAYS_INLINE 
       alt_irq_disable_all (void)
{
  alt_irq_context context;

  NIOS2_READ_STATUS (context);
  800844:	0005303a 	rdctl	r2,status
  800848:	e0bffa15 	stw	r2,-24(fp)

  NIOS2_WRITE_STATUS (context & ~NIOS2_STATUS_PIE_MSK);
  80084c:	e0fffa17 	ldw	r3,-24(fp)
  800850:	00bfff84 	movi	r2,-2
  800854:	1884703a 	and	r2,r3,r2
  800858:	1001703a 	wrctl	status,r2
  
  return context;
  80085c:	e0bffa17 	ldw	r2,-24(fp)
static ALT_INLINE int ALT_ALWAYS_INLINE alt_irq_disable (alt_u32 id)
{
  alt_irq_context  status;
  extern volatile alt_u32 alt_irq_active;

  status = alt_irq_disable_all ();
  800860:	e0bffb15 	stw	r2,-20(fp)

  alt_irq_active &= ~(1 << id);
  800864:	00c00044 	movi	r3,1
  800868:	e0bff517 	ldw	r2,-44(fp)
  80086c:	1884983a 	sll	r2,r3,r2
  800870:	0084303a 	nor	r2,zero,r2
  800874:	1007883a 	mov	r3,r2
  800878:	d0a03d17 	ldw	r2,-32524(gp)
  80087c:	1884703a 	and	r2,r3,r2
  800880:	d0a03d15 	stw	r2,-32524(gp)
  NIOS2_WRITE_IENABLE (alt_irq_active);
  800884:	d0a03d17 	ldw	r2,-32524(gp)
  800888:	100170fa 	wrctl	ienable,r2
  80088c:	e0bffb17 	ldw	r2,-20(fp)
  800890:	e0bffc15 	stw	r2,-16(fp)
  status &= ~NIOS2_STATUS_PIE_MSK;
  status |= (context & NIOS2_STATUS_PIE_MSK);
  
  NIOS2_WRITE_STATUS (status);
#else
  NIOS2_WRITE_STATUS (context);
  800894:	e0bffc17 	ldw	r2,-16(fp)
  800898:	1001703a 	wrctl	status,r2

  alt_irq_enable_all(status);

  return 0;
  80089c:	0005883a 	mov	r2,zero
  8008a0:	e0bff215 	stw	r2,-56(fp)

		/* alt_irq_enable_all(status); This line is removed to prevent the interrupt from being immediately enabled. */
	}

	return rc;
  8008a4:	e0bff217 	ldw	r2,-56(fp)
}
  8008a8:	e037883a 	mov	sp,fp
  8008ac:	df000017 	ldw	fp,0(sp)
  8008b0:	dec00104 	addi	sp,sp,4
  8008b4:	f800283a 	ret

008008b8 <alt_iic_isr_register>:
  * @param flags
  * @return                 0 if successful, else error (-1)
  */
int alt_iic_isr_register(alt_u32 ic_id, alt_u32 irq, alt_isr_func isr,
  void *isr_context, void *flags)
{
  8008b8:	defff604 	addi	sp,sp,-40
  8008bc:	dfc00915 	stw	ra,36(sp)
  8008c0:	df000815 	stw	fp,32(sp)
  8008c4:	df000804 	addi	fp,sp,32
  8008c8:	e13ffc15 	stw	r4,-16(fp)
  8008cc:	e17ffd15 	stw	r5,-12(fp)
  8008d0:	e1bffe15 	stw	r6,-8(fp)
  8008d4:	e1ffff15 	stw	r7,-4(fp)
  int rc = -EINVAL;
  8008d8:	00bffa84 	movi	r2,-22
  8008dc:	e0bff815 	stw	r2,-32(fp)
  int id = irq;             /* IRQ interpreted as the interrupt ID. */
  8008e0:	e0bffd17 	ldw	r2,-12(fp)
  8008e4:	e0bff915 	stw	r2,-28(fp)
  alt_irq_context status;

  if (id < ALT_NIRQ)
  8008e8:	e0bff917 	ldw	r2,-28(fp)
  8008ec:	10800808 	cmpgei	r2,r2,32
  8008f0:	1000231e 	bne	r2,zero,800980 <alt_iic_isr_register+0xc8>
static ALT_INLINE alt_irq_context ALT_ALWAYS_INLINE 
       alt_irq_disable_all (void)
{
  alt_irq_context context;

  NIOS2_READ_STATUS (context);
  8008f4:	0005303a 	rdctl	r2,status
  8008f8:	e0bffb15 	stw	r2,-20(fp)

  NIOS2_WRITE_STATUS (context & ~NIOS2_STATUS_PIE_MSK);
  8008fc:	e0fffb17 	ldw	r3,-20(fp)
  800900:	00bfff84 	movi	r2,-2
  800904:	1884703a 	and	r2,r3,r2
  800908:	1001703a 	wrctl	status,r2
  
  return context;
  80090c:	e0bffb17 	ldw	r2,-20(fp)
     * interrupts are disabled while the handler tables are updated to ensure
     * that an interrupt doesn't occur while the tables are in an inconsistant
     * state.
     */

    status = alt_irq_disable_all();
  800910:	e0bffa15 	stw	r2,-24(fp)

    alt_irq[id].handler = isr;
  800914:	008020f4 	movhi	r2,131
  800918:	10add604 	addi	r2,r2,-18600
  80091c:	e0fff917 	ldw	r3,-28(fp)
  800920:	180690fa 	slli	r3,r3,3
  800924:	10c5883a 	add	r2,r2,r3
  800928:	e0fffe17 	ldw	r3,-8(fp)
  80092c:	10c00015 	stw	r3,0(r2)
    alt_irq[id].context = isr_context;
  800930:	008020f4 	movhi	r2,131
  800934:	10add604 	addi	r2,r2,-18600
  800938:	e0fff917 	ldw	r3,-28(fp)
  80093c:	180690fa 	slli	r3,r3,3
  800940:	10c5883a 	add	r2,r2,r3
  800944:	10800104 	addi	r2,r2,4
  800948:	e0ffff17 	ldw	r3,-4(fp)
  80094c:	10c00015 	stw	r3,0(r2)

    rc = (isr) ? alt_ic_irq_enable(ic_id, id) : alt_ic_irq_disable(ic_id, id);
  800950:	e0bffe17 	ldw	r2,-8(fp)
  800954:	10000526 	beq	r2,zero,80096c <alt_iic_isr_register+0xb4>
  800958:	e0bff917 	ldw	r2,-28(fp)
  80095c:	100b883a 	mov	r5,r2
  800960:	e13ffc17 	ldw	r4,-16(fp)
  800964:	080f7040 	call	80f704 <alt_ic_irq_enable>
  800968:	00000406 	br	80097c <alt_iic_isr_register+0xc4>
  80096c:	e0bff917 	ldw	r2,-28(fp)
  800970:	100b883a 	mov	r5,r2
  800974:	e13ffc17 	ldw	r4,-16(fp)
  800978:	080f78c0 	call	80f78c <alt_ic_irq_disable>
  80097c:	e0bff815 	stw	r2,-32(fp)

  //  alt_irq_enable_all(status);
  }

  return rc;
  800980:	e0bff817 	ldw	r2,-32(fp)
}
  800984:	e037883a 	mov	sp,fp
  800988:	dfc00117 	ldw	ra,4(sp)
  80098c:	df000017 	ldw	fp,0(sp)
  800990:	dec00204 	addi	sp,sp,8
  800994:	f800283a 	ret

00800998 <pvPortMalloc>:
	pxIterator->pxNextFreeBlock = pxBlockToInsert;									\
}
/*-----------------------------------------------------------*/

void *pvPortMalloc( size_t xWantedSize )
{
  800998:	defff704 	addi	sp,sp,-36
  80099c:	dfc00815 	stw	ra,32(sp)
  8009a0:	df000715 	stw	fp,28(sp)
  8009a4:	df000704 	addi	fp,sp,28
  8009a8:	e13fff15 	stw	r4,-4(fp)
BlockLink_t *pxBlock, *pxPreviousBlock, *pxNewBlockLink;
static BaseType_t xHeapHasBeenInitialised = pdFALSE;
void *pvReturn = NULL;
  8009ac:	e03ffb15 	stw	zero,-20(fp)

	vTaskSuspendAll();
  8009b0:	0802a4c0 	call	802a4c <vTaskSuspendAll>
	{
		/* If this is the first call to malloc then the heap will require
		initialisation to setup the list of free blocks. */
		if( xHeapHasBeenInitialised == pdFALSE )
  8009b4:	d0a02417 	ldw	r2,-32624(gp)
  8009b8:	1000031e 	bne	r2,zero,8009c8 <pvPortMalloc+0x30>
		{
			prvHeapInit();
  8009bc:	0800c740 	call	800c74 <prvHeapInit>
			xHeapHasBeenInitialised = pdTRUE;
  8009c0:	00800044 	movi	r2,1
  8009c4:	d0a02415 	stw	r2,-32624(gp)
		}

		/* The wanted size is increased so it can contain a BlockLink_t
		structure in addition to the requested amount of bytes. */
		if( xWantedSize > 0 )
  8009c8:	e0bfff17 	ldw	r2,-4(fp)
  8009cc:	10000d26 	beq	r2,zero,800a04 <pvPortMalloc+0x6c>
		{
			xWantedSize += heapSTRUCT_SIZE;
  8009d0:	00800204 	movi	r2,8
  8009d4:	10bfffcc 	andi	r2,r2,65535
  8009d8:	e0ffff17 	ldw	r3,-4(fp)
  8009dc:	1885883a 	add	r2,r3,r2
  8009e0:	e0bfff15 	stw	r2,-4(fp)

			/* Ensure that blocks are always aligned to the required number of bytes. */
			if( ( xWantedSize & portBYTE_ALIGNMENT_MASK ) != 0 )
  8009e4:	e0bfff17 	ldw	r2,-4(fp)
  8009e8:	108000cc 	andi	r2,r2,3
  8009ec:	10000526 	beq	r2,zero,800a04 <pvPortMalloc+0x6c>
			{
				/* Byte alignment required. */
				xWantedSize += ( portBYTE_ALIGNMENT - ( xWantedSize & portBYTE_ALIGNMENT_MASK ) );
  8009f0:	e0ffff17 	ldw	r3,-4(fp)
  8009f4:	00bfff04 	movi	r2,-4
  8009f8:	1884703a 	and	r2,r3,r2
  8009fc:	10800104 	addi	r2,r2,4
  800a00:	e0bfff15 	stw	r2,-4(fp)
			}
		}

		if( ( xWantedSize > 0 ) && ( xWantedSize < configADJUSTED_HEAP_SIZE ) )
  800a04:	e0bfff17 	ldw	r2,-4(fp)
  800a08:	10005026 	beq	r2,zero,800b4c <pvPortMalloc+0x1b4>
  800a0c:	e0bfff17 	ldw	r2,-4(fp)
  800a10:	10bfff28 	cmpgeui	r2,r2,65532
  800a14:	10004d1e 	bne	r2,zero,800b4c <pvPortMalloc+0x1b4>
		{
			/* Blocks are stored in byte order - traverse the list from the start
			(smallest) block until one of adequate size is found. */
			pxPreviousBlock = &xStart;
  800a18:	d0a02004 	addi	r2,gp,-32640
  800a1c:	e0bffa15 	stw	r2,-24(fp)
			pxBlock = xStart.pxNextFreeBlock;
  800a20:	d0a02017 	ldw	r2,-32640(gp)
  800a24:	e0bff915 	stw	r2,-28(fp)
			while( ( pxBlock->xBlockSize < xWantedSize ) && ( pxBlock->pxNextFreeBlock != NULL ) )
  800a28:	00000506 	br	800a40 <pvPortMalloc+0xa8>
			{
				pxPreviousBlock = pxBlock;
  800a2c:	e0bff917 	ldw	r2,-28(fp)
  800a30:	e0bffa15 	stw	r2,-24(fp)
				pxBlock = pxBlock->pxNextFreeBlock;
  800a34:	e0bff917 	ldw	r2,-28(fp)
  800a38:	10800017 	ldw	r2,0(r2)
  800a3c:	e0bff915 	stw	r2,-28(fp)
		{
			/* Blocks are stored in byte order - traverse the list from the start
			(smallest) block until one of adequate size is found. */
			pxPreviousBlock = &xStart;
			pxBlock = xStart.pxNextFreeBlock;
			while( ( pxBlock->xBlockSize < xWantedSize ) && ( pxBlock->pxNextFreeBlock != NULL ) )
  800a40:	e0bff917 	ldw	r2,-28(fp)
  800a44:	10c00117 	ldw	r3,4(r2)
  800a48:	e0bfff17 	ldw	r2,-4(fp)
  800a4c:	1880032e 	bgeu	r3,r2,800a5c <pvPortMalloc+0xc4>
  800a50:	e0bff917 	ldw	r2,-28(fp)
  800a54:	10800017 	ldw	r2,0(r2)
  800a58:	103ff41e 	bne	r2,zero,800a2c <__alt_data_end+0xfff00a2c>
				pxPreviousBlock = pxBlock;
				pxBlock = pxBlock->pxNextFreeBlock;
			}

			/* If we found the end marker then a block of adequate size was not found. */
			if( pxBlock != &xEnd )
  800a5c:	e0fff917 	ldw	r3,-28(fp)
  800a60:	d0a02204 	addi	r2,gp,-32632
  800a64:	18803926 	beq	r3,r2,800b4c <pvPortMalloc+0x1b4>
			{
				/* Return the memory space - jumping over the BlockLink_t structure
				at its start. */
				pvReturn = ( void * ) ( ( ( uint8_t * ) pxPreviousBlock->pxNextFreeBlock ) + heapSTRUCT_SIZE );
  800a68:	e0bffa17 	ldw	r2,-24(fp)
  800a6c:	10c00017 	ldw	r3,0(r2)
  800a70:	00800204 	movi	r2,8
  800a74:	10bfffcc 	andi	r2,r2,65535
  800a78:	1885883a 	add	r2,r3,r2
  800a7c:	e0bffb15 	stw	r2,-20(fp)

				/* This block is being returned for use so must be taken out of the
				list of free blocks. */
				pxPreviousBlock->pxNextFreeBlock = pxBlock->pxNextFreeBlock;
  800a80:	e0bff917 	ldw	r2,-28(fp)
  800a84:	10c00017 	ldw	r3,0(r2)
  800a88:	e0bffa17 	ldw	r2,-24(fp)
  800a8c:	10c00015 	stw	r3,0(r2)

				/* If the block is larger than required it can be split into two. */
				if( ( pxBlock->xBlockSize - xWantedSize ) > heapMINIMUM_BLOCK_SIZE )
  800a90:	e0bff917 	ldw	r2,-28(fp)
  800a94:	10c00117 	ldw	r3,4(r2)
  800a98:	e0bfff17 	ldw	r2,-4(fp)
  800a9c:	1887c83a 	sub	r3,r3,r2
  800aa0:	00800204 	movi	r2,8
  800aa4:	10bfffcc 	andi	r2,r2,65535
  800aa8:	1085883a 	add	r2,r2,r2
  800aac:	10c0222e 	bgeu	r2,r3,800b38 <pvPortMalloc+0x1a0>
				{
					/* This block is to be split into two.  Create a new block
					following the number of bytes requested. The void cast is
					used to prevent byte alignment warnings from the compiler. */
					pxNewBlockLink = ( void * ) ( ( ( uint8_t * ) pxBlock ) + xWantedSize );
  800ab0:	e0fff917 	ldw	r3,-28(fp)
  800ab4:	e0bfff17 	ldw	r2,-4(fp)
  800ab8:	1885883a 	add	r2,r3,r2
  800abc:	e0bffd15 	stw	r2,-12(fp)

					/* Calculate the sizes of two blocks split from the single
					block. */
					pxNewBlockLink->xBlockSize = pxBlock->xBlockSize - xWantedSize;
  800ac0:	e0bff917 	ldw	r2,-28(fp)
  800ac4:	10c00117 	ldw	r3,4(r2)
  800ac8:	e0bfff17 	ldw	r2,-4(fp)
  800acc:	1887c83a 	sub	r3,r3,r2
  800ad0:	e0bffd17 	ldw	r2,-12(fp)
  800ad4:	10c00115 	stw	r3,4(r2)
					pxBlock->xBlockSize = xWantedSize;
  800ad8:	e0bff917 	ldw	r2,-28(fp)
  800adc:	e0ffff17 	ldw	r3,-4(fp)
  800ae0:	10c00115 	stw	r3,4(r2)

					/* Insert the new block into the list of free blocks. */
					prvInsertBlockIntoFreeList( ( pxNewBlockLink ) );
  800ae4:	e0bffd17 	ldw	r2,-12(fp)
  800ae8:	10800117 	ldw	r2,4(r2)
  800aec:	e0bffe15 	stw	r2,-8(fp)
  800af0:	d0a02004 	addi	r2,gp,-32640
  800af4:	e0bffc15 	stw	r2,-16(fp)
  800af8:	00000306 	br	800b08 <pvPortMalloc+0x170>
  800afc:	e0bffc17 	ldw	r2,-16(fp)
  800b00:	10800017 	ldw	r2,0(r2)
  800b04:	e0bffc15 	stw	r2,-16(fp)
  800b08:	e0bffc17 	ldw	r2,-16(fp)
  800b0c:	10800017 	ldw	r2,0(r2)
  800b10:	10c00117 	ldw	r3,4(r2)
  800b14:	e0bffe17 	ldw	r2,-8(fp)
  800b18:	18bff836 	bltu	r3,r2,800afc <__alt_data_end+0xfff00afc>
  800b1c:	e0bffc17 	ldw	r2,-16(fp)
  800b20:	10c00017 	ldw	r3,0(r2)
  800b24:	e0bffd17 	ldw	r2,-12(fp)
  800b28:	10c00015 	stw	r3,0(r2)
  800b2c:	e0bffc17 	ldw	r2,-16(fp)
  800b30:	e0fffd17 	ldw	r3,-12(fp)
  800b34:	10c00015 	stw	r3,0(r2)
				}

				xFreeBytesRemaining -= pxBlock->xBlockSize;
  800b38:	d0e00117 	ldw	r3,-32764(gp)
  800b3c:	e0bff917 	ldw	r2,-28(fp)
  800b40:	10800117 	ldw	r2,4(r2)
  800b44:	1885c83a 	sub	r2,r3,r2
  800b48:	d0a00115 	stw	r2,-32764(gp)
			}
		}

		traceMALLOC( pvReturn, xWantedSize );
	}
	( void ) xTaskResumeAll();
  800b4c:	0802a780 	call	802a78 <xTaskResumeAll>
			vApplicationMallocFailedHook();
		}
	}
	#endif

	return pvReturn;
  800b50:	e0bffb17 	ldw	r2,-20(fp)
}
  800b54:	e037883a 	mov	sp,fp
  800b58:	dfc00117 	ldw	ra,4(sp)
  800b5c:	df000017 	ldw	fp,0(sp)
  800b60:	dec00204 	addi	sp,sp,8
  800b64:	f800283a 	ret

00800b68 <vPortFree>:
/*-----------------------------------------------------------*/

void vPortFree( void *pv )
{
  800b68:	defff904 	addi	sp,sp,-28
  800b6c:	dfc00615 	stw	ra,24(sp)
  800b70:	df000515 	stw	fp,20(sp)
  800b74:	df000504 	addi	fp,sp,20
  800b78:	e13fff15 	stw	r4,-4(fp)
uint8_t *puc = ( uint8_t * ) pv;
  800b7c:	e0bfff17 	ldw	r2,-4(fp)
  800b80:	e0bffc15 	stw	r2,-16(fp)
BlockLink_t *pxLink;

	if( pv != NULL )
  800b84:	e0bfff17 	ldw	r2,-4(fp)
  800b88:	10002426 	beq	r2,zero,800c1c <vPortFree+0xb4>
	{
		/* The memory being freed will have an BlockLink_t structure immediately
		before it. */
		puc -= heapSTRUCT_SIZE;
  800b8c:	00800204 	movi	r2,8
  800b90:	10bfffcc 	andi	r2,r2,65535
  800b94:	0085c83a 	sub	r2,zero,r2
  800b98:	e0fffc17 	ldw	r3,-16(fp)
  800b9c:	1885883a 	add	r2,r3,r2
  800ba0:	e0bffc15 	stw	r2,-16(fp)

		/* This unexpected casting is to keep some compilers from issuing
		byte alignment warnings. */
		pxLink = ( void * ) puc;
  800ba4:	e0bffc17 	ldw	r2,-16(fp)
  800ba8:	e0bffd15 	stw	r2,-12(fp)

		vTaskSuspendAll();
  800bac:	0802a4c0 	call	802a4c <vTaskSuspendAll>
		{
			/* Add this block to the list of free blocks. */
			prvInsertBlockIntoFreeList( ( ( BlockLink_t * ) pxLink ) );
  800bb0:	e0bffd17 	ldw	r2,-12(fp)
  800bb4:	10800117 	ldw	r2,4(r2)
  800bb8:	e0bffe15 	stw	r2,-8(fp)
  800bbc:	d0a02004 	addi	r2,gp,-32640
  800bc0:	e0bffb15 	stw	r2,-20(fp)
  800bc4:	00000306 	br	800bd4 <vPortFree+0x6c>
  800bc8:	e0bffb17 	ldw	r2,-20(fp)
  800bcc:	10800017 	ldw	r2,0(r2)
  800bd0:	e0bffb15 	stw	r2,-20(fp)
  800bd4:	e0bffb17 	ldw	r2,-20(fp)
  800bd8:	10800017 	ldw	r2,0(r2)
  800bdc:	10c00117 	ldw	r3,4(r2)
  800be0:	e0bffe17 	ldw	r2,-8(fp)
  800be4:	18bff836 	bltu	r3,r2,800bc8 <__alt_data_end+0xfff00bc8>
  800be8:	e0bffb17 	ldw	r2,-20(fp)
  800bec:	10c00017 	ldw	r3,0(r2)
  800bf0:	e0bffd17 	ldw	r2,-12(fp)
  800bf4:	10c00015 	stw	r3,0(r2)
  800bf8:	e0bffb17 	ldw	r2,-20(fp)
  800bfc:	e0fffd17 	ldw	r3,-12(fp)
  800c00:	10c00015 	stw	r3,0(r2)
			xFreeBytesRemaining += pxLink->xBlockSize;
  800c04:	e0bffd17 	ldw	r2,-12(fp)
  800c08:	10c00117 	ldw	r3,4(r2)
  800c0c:	d0a00117 	ldw	r2,-32764(gp)
  800c10:	1885883a 	add	r2,r3,r2
  800c14:	d0a00115 	stw	r2,-32764(gp)
			traceFREE( pv, pxLink->xBlockSize );
		}
		( void ) xTaskResumeAll();
  800c18:	0802a780 	call	802a78 <xTaskResumeAll>
	}
}
  800c1c:	0001883a 	nop
  800c20:	e037883a 	mov	sp,fp
  800c24:	dfc00117 	ldw	ra,4(sp)
  800c28:	df000017 	ldw	fp,0(sp)
  800c2c:	dec00204 	addi	sp,sp,8
  800c30:	f800283a 	ret

00800c34 <xPortGetFreeHeapSize>:
/*-----------------------------------------------------------*/

size_t xPortGetFreeHeapSize( void )
{
  800c34:	deffff04 	addi	sp,sp,-4
  800c38:	df000015 	stw	fp,0(sp)
  800c3c:	d839883a 	mov	fp,sp
	return xFreeBytesRemaining;
  800c40:	d0a00117 	ldw	r2,-32764(gp)
}
  800c44:	e037883a 	mov	sp,fp
  800c48:	df000017 	ldw	fp,0(sp)
  800c4c:	dec00104 	addi	sp,sp,4
  800c50:	f800283a 	ret

00800c54 <vPortInitialiseBlocks>:
/*-----------------------------------------------------------*/

void vPortInitialiseBlocks( void )
{
  800c54:	deffff04 	addi	sp,sp,-4
  800c58:	df000015 	stw	fp,0(sp)
  800c5c:	d839883a 	mov	fp,sp
	/* This just exists to keep the linker quiet. */
}
  800c60:	0001883a 	nop
  800c64:	e037883a 	mov	sp,fp
  800c68:	df000017 	ldw	fp,0(sp)
  800c6c:	dec00104 	addi	sp,sp,4
  800c70:	f800283a 	ret

00800c74 <prvHeapInit>:
/*-----------------------------------------------------------*/

static void prvHeapInit( void )
{
  800c74:	defffd04 	addi	sp,sp,-12
  800c78:	df000215 	stw	fp,8(sp)
  800c7c:	df000204 	addi	fp,sp,8
BlockLink_t *pxFirstFreeBlock;
uint8_t *pucAlignedHeap;

	/* Ensure the heap starts on a correctly aligned boundary. */
	pucAlignedHeap = ( uint8_t * ) ( ( ( portPOINTER_SIZE_TYPE ) &ucHeap[ portBYTE_ALIGNMENT ] ) & ( ~( ( portPOINTER_SIZE_TYPE ) portBYTE_ALIGNMENT_MASK ) ) );
  800c80:	008020b4 	movhi	r2,130
  800c84:	10ad7d04 	addi	r2,r2,-18956
  800c88:	00ffff04 	movi	r3,-4
  800c8c:	10c4703a 	and	r2,r2,r3
  800c90:	e0bffe15 	stw	r2,-8(fp)

	/* xStart is used to hold a pointer to the first item in the list of free
	blocks.  The void cast is used to prevent compiler warnings. */
	xStart.pxNextFreeBlock = ( void * ) pucAlignedHeap;
  800c94:	e0bffe17 	ldw	r2,-8(fp)
  800c98:	d0a02015 	stw	r2,-32640(gp)
	xStart.xBlockSize = ( size_t ) 0;
  800c9c:	d0202115 	stw	zero,-32636(gp)

	/* xEnd is used to mark the end of the list of free blocks. */
	xEnd.xBlockSize = configADJUSTED_HEAP_SIZE;
  800ca0:	00bfff14 	movui	r2,65532
  800ca4:	d0a02315 	stw	r2,-32628(gp)
	xEnd.pxNextFreeBlock = NULL;
  800ca8:	d0202215 	stw	zero,-32632(gp)

	/* To start with there is a single free block that is sized to take up the
	entire heap space. */
	pxFirstFreeBlock = ( void * ) pucAlignedHeap;
  800cac:	e0bffe17 	ldw	r2,-8(fp)
  800cb0:	e0bfff15 	stw	r2,-4(fp)
	pxFirstFreeBlock->xBlockSize = configADJUSTED_HEAP_SIZE;
  800cb4:	e0bfff17 	ldw	r2,-4(fp)
  800cb8:	00ffff14 	movui	r3,65532
  800cbc:	10c00115 	stw	r3,4(r2)
	pxFirstFreeBlock->pxNextFreeBlock = &xEnd;
  800cc0:	e0bfff17 	ldw	r2,-4(fp)
  800cc4:	d0e02204 	addi	r3,gp,-32632
  800cc8:	10c00015 	stw	r3,0(r2)
}
  800ccc:	0001883a 	nop
  800cd0:	e037883a 	mov	sp,fp
  800cd4:	df000017 	ldw	fp,0(sp)
  800cd8:	dec00104 	addi	sp,sp,4
  800cdc:	f800283a 	ret

00800ce0 <xQueueGenericReset>:
	}														\
	taskEXIT_CRITICAL()
/*-----------------------------------------------------------*/

BaseType_t xQueueGenericReset( QueueHandle_t xQueue, BaseType_t xNewQueue )
{
  800ce0:	defffa04 	addi	sp,sp,-24
  800ce4:	dfc00515 	stw	ra,20(sp)
  800ce8:	df000415 	stw	fp,16(sp)
  800cec:	dc000315 	stw	r16,12(sp)
  800cf0:	df000404 	addi	fp,sp,16
  800cf4:	e13ffd15 	stw	r4,-12(fp)
  800cf8:	e17ffe15 	stw	r5,-8(fp)
Queue_t * const pxQueue = ( Queue_t * ) xQueue;
  800cfc:	e0bffd17 	ldw	r2,-12(fp)
  800d00:	e0bffc15 	stw	r2,-16(fp)

	configASSERT( pxQueue );

	taskENTER_CRITICAL();
  800d04:	08038ac0 	call	8038ac <vTaskEnterCritical>
	{
		pxQueue->pcTail = pxQueue->pcHead + ( pxQueue->uxLength * pxQueue->uxItemSize );
  800d08:	e0bffc17 	ldw	r2,-16(fp)
  800d0c:	14000017 	ldw	r16,0(r2)
  800d10:	e0bffc17 	ldw	r2,-16(fp)
  800d14:	10c00f17 	ldw	r3,60(r2)
  800d18:	e0bffc17 	ldw	r2,-16(fp)
  800d1c:	10801017 	ldw	r2,64(r2)
  800d20:	100b883a 	mov	r5,r2
  800d24:	1809883a 	mov	r4,r3
  800d28:	080b2480 	call	80b248 <__mulsi3>
  800d2c:	8087883a 	add	r3,r16,r2
  800d30:	e0bffc17 	ldw	r2,-16(fp)
  800d34:	10c00115 	stw	r3,4(r2)
		pxQueue->uxMessagesWaiting = ( UBaseType_t ) 0U;
  800d38:	e0bffc17 	ldw	r2,-16(fp)
  800d3c:	10000e15 	stw	zero,56(r2)
		pxQueue->pcWriteTo = pxQueue->pcHead;
  800d40:	e0bffc17 	ldw	r2,-16(fp)
  800d44:	10c00017 	ldw	r3,0(r2)
  800d48:	e0bffc17 	ldw	r2,-16(fp)
  800d4c:	10c00215 	stw	r3,8(r2)
		pxQueue->u.pcReadFrom = pxQueue->pcHead + ( ( pxQueue->uxLength - ( UBaseType_t ) 1U ) * pxQueue->uxItemSize );
  800d50:	e0bffc17 	ldw	r2,-16(fp)
  800d54:	14000017 	ldw	r16,0(r2)
  800d58:	e0bffc17 	ldw	r2,-16(fp)
  800d5c:	10800f17 	ldw	r2,60(r2)
  800d60:	10ffffc4 	addi	r3,r2,-1
  800d64:	e0bffc17 	ldw	r2,-16(fp)
  800d68:	10801017 	ldw	r2,64(r2)
  800d6c:	100b883a 	mov	r5,r2
  800d70:	1809883a 	mov	r4,r3
  800d74:	080b2480 	call	80b248 <__mulsi3>
  800d78:	8087883a 	add	r3,r16,r2
  800d7c:	e0bffc17 	ldw	r2,-16(fp)
  800d80:	10c00315 	stw	r3,12(r2)
		pxQueue->cRxLock = queueUNLOCKED;
  800d84:	e0bffc17 	ldw	r2,-16(fp)
  800d88:	00ffffc4 	movi	r3,-1
  800d8c:	10c01105 	stb	r3,68(r2)
		pxQueue->cTxLock = queueUNLOCKED;
  800d90:	e0bffc17 	ldw	r2,-16(fp)
  800d94:	00ffffc4 	movi	r3,-1
  800d98:	10c01145 	stb	r3,69(r2)

		if( xNewQueue == pdFALSE )
  800d9c:	e0bffe17 	ldw	r2,-8(fp)
  800da0:	10000a1e 	bne	r2,zero,800dcc <xQueueGenericReset+0xec>
			/* If there are tasks blocked waiting to read from the queue, then
			the tasks will remain blocked as after this function exits the queue
			will still be empty.  If there are tasks blocked waiting to write to
			the queue, then one should be unblocked as after this function exits
			it will be possible to write to it. */
			if( listLIST_IS_EMPTY( &( pxQueue->xTasksWaitingToSend ) ) == pdFALSE )
  800da4:	e0bffc17 	ldw	r2,-16(fp)
  800da8:	10800417 	ldw	r2,16(r2)
  800dac:	10000f26 	beq	r2,zero,800dec <xQueueGenericReset+0x10c>
			{
				if( xTaskRemoveFromEventList( &( pxQueue->xTasksWaitingToSend ) ) != pdFALSE )
  800db0:	e0bffc17 	ldw	r2,-16(fp)
  800db4:	10800404 	addi	r2,r2,16
  800db8:	1009883a 	mov	r4,r2
  800dbc:	080301c0 	call	80301c <xTaskRemoveFromEventList>
  800dc0:	10000a26 	beq	r2,zero,800dec <xQueueGenericReset+0x10c>
				{
					queueYIELD_IF_USING_PREEMPTION();
  800dc4:	003b683a 	trap	0
  800dc8:	00000806 	br	800dec <xQueueGenericReset+0x10c>
			}
		}
		else
		{
			/* Ensure the event queues start in the correct state. */
			vListInitialise( &( pxQueue->xTasksWaitingToSend ) );
  800dcc:	e0bffc17 	ldw	r2,-16(fp)
  800dd0:	10800404 	addi	r2,r2,16
  800dd4:	1009883a 	mov	r4,r2
  800dd8:	08002880 	call	800288 <vListInitialise>
			vListInitialise( &( pxQueue->xTasksWaitingToReceive ) );
  800ddc:	e0bffc17 	ldw	r2,-16(fp)
  800de0:	10800904 	addi	r2,r2,36
  800de4:	1009883a 	mov	r4,r2
  800de8:	08002880 	call	800288 <vListInitialise>
		}
	}
	taskEXIT_CRITICAL();
  800dec:	08039000 	call	803900 <vTaskExitCritical>

	/* A value is returned for calling semantic consistency with previous
	versions. */
	return pdPASS;
  800df0:	00800044 	movi	r2,1
}
  800df4:	e6ffff04 	addi	sp,fp,-4
  800df8:	dfc00217 	ldw	ra,8(sp)
  800dfc:	df000117 	ldw	fp,4(sp)
  800e00:	dc000017 	ldw	r16,0(sp)
  800e04:	dec00304 	addi	sp,sp,12
  800e08:	f800283a 	ret

00800e0c <xQueueGenericCreate>:
/*-----------------------------------------------------------*/

#if( configSUPPORT_DYNAMIC_ALLOCATION == 1 )

	QueueHandle_t xQueueGenericCreate( const UBaseType_t uxQueueLength, const UBaseType_t uxItemSize, const uint8_t ucQueueType )
	{
  800e0c:	defff704 	addi	sp,sp,-36
  800e10:	dfc00815 	stw	ra,32(sp)
  800e14:	df000715 	stw	fp,28(sp)
  800e18:	df000704 	addi	fp,sp,28
  800e1c:	e13ffd15 	stw	r4,-12(fp)
  800e20:	e17ffe15 	stw	r5,-8(fp)
  800e24:	3005883a 	mov	r2,r6
  800e28:	e0bfff05 	stb	r2,-4(fp)
	size_t xQueueSizeInBytes;
	uint8_t *pucQueueStorage;

		configASSERT( uxQueueLength > ( UBaseType_t ) 0 );

		if( uxItemSize == ( UBaseType_t ) 0 )
  800e2c:	e0bffe17 	ldw	r2,-8(fp)
  800e30:	1000021e 	bne	r2,zero,800e3c <xQueueGenericCreate+0x30>
		{
			/* There is not going to be a queue storage area. */
			xQueueSizeInBytes = ( size_t ) 0;
  800e34:	e03ffa15 	stw	zero,-24(fp)
  800e38:	00000406 	br	800e4c <xQueueGenericCreate+0x40>
		}
		else
		{
			/* Allocate enough space to hold the maximum number of items that
			can be in the queue at any time. */
			xQueueSizeInBytes = ( size_t ) ( uxQueueLength * uxItemSize ); /*lint !e961 MISRA exception as the casts are only redundant for some ports. */
  800e3c:	e17ffe17 	ldw	r5,-8(fp)
  800e40:	e13ffd17 	ldw	r4,-12(fp)
  800e44:	080b2480 	call	80b248 <__mulsi3>
  800e48:	e0bffa15 	stw	r2,-24(fp)
		}

		pxNewQueue = ( Queue_t * ) pvPortMalloc( sizeof( Queue_t ) + xQueueSizeInBytes );
  800e4c:	e0bffa17 	ldw	r2,-24(fp)
  800e50:	10801204 	addi	r2,r2,72
  800e54:	1009883a 	mov	r4,r2
  800e58:	08009980 	call	800998 <pvPortMalloc>
  800e5c:	e0bffb15 	stw	r2,-20(fp)

		if( pxNewQueue != NULL )
  800e60:	e0bffb17 	ldw	r2,-20(fp)
  800e64:	10000b26 	beq	r2,zero,800e94 <xQueueGenericCreate+0x88>
		{
			/* Jump past the queue structure to find the location of the queue
			storage area. */
			pucQueueStorage = ( ( uint8_t * ) pxNewQueue ) + sizeof( Queue_t );
  800e68:	e0bffb17 	ldw	r2,-20(fp)
  800e6c:	10801204 	addi	r2,r2,72
  800e70:	e0bffc15 	stw	r2,-16(fp)
				deleted. */
				pxNewQueue->ucStaticallyAllocated = pdFALSE;
			}
			#endif /* configSUPPORT_STATIC_ALLOCATION */

			prvInitialiseNewQueue( uxQueueLength, uxItemSize, pucQueueStorage, ucQueueType, pxNewQueue );
  800e74:	e0ffff03 	ldbu	r3,-4(fp)
  800e78:	e0bffb17 	ldw	r2,-20(fp)
  800e7c:	d8800015 	stw	r2,0(sp)
  800e80:	180f883a 	mov	r7,r3
  800e84:	e1bffc17 	ldw	r6,-16(fp)
  800e88:	e17ffe17 	ldw	r5,-8(fp)
  800e8c:	e13ffd17 	ldw	r4,-12(fp)
  800e90:	0800eac0 	call	800eac <prvInitialiseNewQueue>
		}

		return pxNewQueue;
  800e94:	e0bffb17 	ldw	r2,-20(fp)
	}
  800e98:	e037883a 	mov	sp,fp
  800e9c:	dfc00117 	ldw	ra,4(sp)
  800ea0:	df000017 	ldw	fp,0(sp)
  800ea4:	dec00204 	addi	sp,sp,8
  800ea8:	f800283a 	ret

00800eac <prvInitialiseNewQueue>:

#endif /* configSUPPORT_STATIC_ALLOCATION */
/*-----------------------------------------------------------*/

static void prvInitialiseNewQueue( const UBaseType_t uxQueueLength, const UBaseType_t uxItemSize, uint8_t *pucQueueStorage, const uint8_t ucQueueType, Queue_t *pxNewQueue )
{
  800eac:	defffa04 	addi	sp,sp,-24
  800eb0:	dfc00515 	stw	ra,20(sp)
  800eb4:	df000415 	stw	fp,16(sp)
  800eb8:	df000404 	addi	fp,sp,16
  800ebc:	e13ffc15 	stw	r4,-16(fp)
  800ec0:	e17ffd15 	stw	r5,-12(fp)
  800ec4:	e1bffe15 	stw	r6,-8(fp)
  800ec8:	3805883a 	mov	r2,r7
  800ecc:	e0bfff05 	stb	r2,-4(fp)
	/* Remove compiler warnings about unused parameters should
	configUSE_TRACE_FACILITY not be set to 1. */
	( void ) ucQueueType;

	if( uxItemSize == ( UBaseType_t ) 0 )
  800ed0:	e0bffd17 	ldw	r2,-12(fp)
  800ed4:	1000041e 	bne	r2,zero,800ee8 <prvInitialiseNewQueue+0x3c>
	{
		/* No RAM was allocated for the queue storage area, but PC head cannot
		be set to NULL because NULL is used as a key to say the queue is used as
		a mutex.  Therefore just set pcHead to point to the queue as a benign
		value that is known to be within the memory map. */
		pxNewQueue->pcHead = ( int8_t * ) pxNewQueue;
  800ed8:	e0800217 	ldw	r2,8(fp)
  800edc:	e0c00217 	ldw	r3,8(fp)
  800ee0:	10c00015 	stw	r3,0(r2)
  800ee4:	00000306 	br	800ef4 <prvInitialiseNewQueue+0x48>
	}
	else
	{
		/* Set the head to the start of the queue storage area. */
		pxNewQueue->pcHead = ( int8_t * ) pucQueueStorage;
  800ee8:	e0800217 	ldw	r2,8(fp)
  800eec:	e0fffe17 	ldw	r3,-8(fp)
  800ef0:	10c00015 	stw	r3,0(r2)
	}

	/* Initialise the queue members as described where the queue type is
	defined. */
	pxNewQueue->uxLength = uxQueueLength;
  800ef4:	e0800217 	ldw	r2,8(fp)
  800ef8:	e0fffc17 	ldw	r3,-16(fp)
  800efc:	10c00f15 	stw	r3,60(r2)
	pxNewQueue->uxItemSize = uxItemSize;
  800f00:	e0800217 	ldw	r2,8(fp)
  800f04:	e0fffd17 	ldw	r3,-12(fp)
  800f08:	10c01015 	stw	r3,64(r2)
	( void ) xQueueGenericReset( pxNewQueue, pdTRUE );
  800f0c:	01400044 	movi	r5,1
  800f10:	e1000217 	ldw	r4,8(fp)
  800f14:	0800ce00 	call	800ce0 <xQueueGenericReset>
		pxNewQueue->pxQueueSetContainer = NULL;
	}
	#endif /* configUSE_QUEUE_SETS */

	traceQUEUE_CREATE( pxNewQueue );
}
  800f18:	0001883a 	nop
  800f1c:	e037883a 	mov	sp,fp
  800f20:	dfc00117 	ldw	ra,4(sp)
  800f24:	df000017 	ldw	fp,0(sp)
  800f28:	dec00204 	addi	sp,sp,8
  800f2c:	f800283a 	ret

00800f30 <prvInitialiseMutex>:
/*-----------------------------------------------------------*/

#if( configUSE_MUTEXES == 1 )

	static void prvInitialiseMutex( Queue_t *pxNewQueue )
	{
  800f30:	defffd04 	addi	sp,sp,-12
  800f34:	dfc00215 	stw	ra,8(sp)
  800f38:	df000115 	stw	fp,4(sp)
  800f3c:	df000104 	addi	fp,sp,4
  800f40:	e13fff15 	stw	r4,-4(fp)
		if( pxNewQueue != NULL )
  800f44:	e0bfff17 	ldw	r2,-4(fp)
  800f48:	10000b26 	beq	r2,zero,800f78 <prvInitialiseMutex+0x48>
		{
			/* The queue create function will set all the queue structure members
			correctly for a generic queue, but this function is creating a
			mutex.  Overwrite those members that need to be set differently -
			in particular the information required for priority inheritance. */
			pxNewQueue->pxMutexHolder = NULL;
  800f4c:	e0bfff17 	ldw	r2,-4(fp)
  800f50:	10000115 	stw	zero,4(r2)
			pxNewQueue->uxQueueType = queueQUEUE_IS_MUTEX;
  800f54:	e0bfff17 	ldw	r2,-4(fp)
  800f58:	10000015 	stw	zero,0(r2)

			/* In case this is a recursive mutex. */
			pxNewQueue->u.uxRecursiveCallCount = 0;
  800f5c:	e0bfff17 	ldw	r2,-4(fp)
  800f60:	10000315 	stw	zero,12(r2)

			traceCREATE_MUTEX( pxNewQueue );

			/* Start with the semaphore in the expected state. */
			( void ) xQueueGenericSend( pxNewQueue, NULL, ( TickType_t ) 0U, queueSEND_TO_BACK );
  800f64:	000f883a 	mov	r7,zero
  800f68:	000d883a 	mov	r6,zero
  800f6c:	000b883a 	mov	r5,zero
  800f70:	e13fff17 	ldw	r4,-4(fp)
  800f74:	08011780 	call	801178 <xQueueGenericSend>
		}
		else
		{
			traceCREATE_MUTEX_FAILED();
		}
	}
  800f78:	0001883a 	nop
  800f7c:	e037883a 	mov	sp,fp
  800f80:	dfc00117 	ldw	ra,4(sp)
  800f84:	df000017 	ldw	fp,0(sp)
  800f88:	dec00204 	addi	sp,sp,8
  800f8c:	f800283a 	ret

00800f90 <xQueueCreateMutex>:
/*-----------------------------------------------------------*/

#if( ( configUSE_MUTEXES == 1 ) && ( configSUPPORT_DYNAMIC_ALLOCATION == 1 ) )

	QueueHandle_t xQueueCreateMutex( const uint8_t ucQueueType )
	{
  800f90:	defffa04 	addi	sp,sp,-24
  800f94:	dfc00515 	stw	ra,20(sp)
  800f98:	df000415 	stw	fp,16(sp)
  800f9c:	df000404 	addi	fp,sp,16
  800fa0:	2005883a 	mov	r2,r4
  800fa4:	e0bfff05 	stb	r2,-4(fp)
	Queue_t *pxNewQueue;
	const UBaseType_t uxMutexLength = ( UBaseType_t ) 1, uxMutexSize = ( UBaseType_t ) 0;
  800fa8:	00800044 	movi	r2,1
  800fac:	e0bffc15 	stw	r2,-16(fp)
  800fb0:	e03ffd15 	stw	zero,-12(fp)

		pxNewQueue = ( Queue_t * ) xQueueGenericCreate( uxMutexLength, uxMutexSize, ucQueueType );
  800fb4:	e0bfff03 	ldbu	r2,-4(fp)
  800fb8:	100d883a 	mov	r6,r2
  800fbc:	e17ffd17 	ldw	r5,-12(fp)
  800fc0:	e13ffc17 	ldw	r4,-16(fp)
  800fc4:	0800e0c0 	call	800e0c <xQueueGenericCreate>
  800fc8:	e0bffe15 	stw	r2,-8(fp)
		prvInitialiseMutex( pxNewQueue );
  800fcc:	e13ffe17 	ldw	r4,-8(fp)
  800fd0:	0800f300 	call	800f30 <prvInitialiseMutex>

		return pxNewQueue;
  800fd4:	e0bffe17 	ldw	r2,-8(fp)
	}
  800fd8:	e037883a 	mov	sp,fp
  800fdc:	dfc00117 	ldw	ra,4(sp)
  800fe0:	df000017 	ldw	fp,0(sp)
  800fe4:	dec00204 	addi	sp,sp,8
  800fe8:	f800283a 	ret

00800fec <xQueueGiveMutexRecursive>:
/*-----------------------------------------------------------*/

#if ( configUSE_RECURSIVE_MUTEXES == 1 )

	BaseType_t xQueueGiveMutexRecursive( QueueHandle_t xMutex )
	{
  800fec:	defffa04 	addi	sp,sp,-24
  800ff0:	dfc00515 	stw	ra,20(sp)
  800ff4:	df000415 	stw	fp,16(sp)
  800ff8:	dc000315 	stw	r16,12(sp)
  800ffc:	df000404 	addi	fp,sp,16
  801000:	e13ffe15 	stw	r4,-8(fp)
	BaseType_t xReturn;
	Queue_t * const pxMutex = ( Queue_t * ) xMutex;
  801004:	e0bffe17 	ldw	r2,-8(fp)
  801008:	e0bffd15 	stw	r2,-12(fp)
		change outside of this task.  If this task does not hold the mutex then
		pxMutexHolder can never coincidentally equal the tasks handle, and as
		this is the only condition we are interested in it does not matter if
		pxMutexHolder is accessed simultaneously by another task.  Therefore no
		mutual exclusion is required to test the pxMutexHolder variable. */
		if( pxMutex->pxMutexHolder == ( void * ) xTaskGetCurrentTaskHandle() ) /*lint !e961 Not a redundant cast as TaskHandle_t is a typedef. */
  80100c:	e0bffd17 	ldw	r2,-12(fp)
  801010:	14000117 	ldw	r16,4(r2)
  801014:	08036340 	call	803634 <xTaskGetCurrentTaskHandle>
  801018:	8080101e 	bne	r16,r2,80105c <xQueueGiveMutexRecursive+0x70>
			/* uxRecursiveCallCount cannot be zero if pxMutexHolder is equal to
			the task handle, therefore no underflow check is required.  Also,
			uxRecursiveCallCount is only modified by the mutex holder, and as
			there can only be one, no mutual exclusion is required to modify the
			uxRecursiveCallCount member. */
			( pxMutex->u.uxRecursiveCallCount )--;
  80101c:	e0bffd17 	ldw	r2,-12(fp)
  801020:	10800317 	ldw	r2,12(r2)
  801024:	10ffffc4 	addi	r3,r2,-1
  801028:	e0bffd17 	ldw	r2,-12(fp)
  80102c:	10c00315 	stw	r3,12(r2)

			/* Has the recursive call count unwound to 0? */
			if( pxMutex->u.uxRecursiveCallCount == ( UBaseType_t ) 0 )
  801030:	e0bffd17 	ldw	r2,-12(fp)
  801034:	10800317 	ldw	r2,12(r2)
  801038:	1000051e 	bne	r2,zero,801050 <xQueueGiveMutexRecursive+0x64>
			{
				/* Return the mutex.  This will automatically unblock any other
				task that might be waiting to access the mutex. */
				( void ) xQueueGenericSend( pxMutex, NULL, queueMUTEX_GIVE_BLOCK_TIME, queueSEND_TO_BACK );
  80103c:	000f883a 	mov	r7,zero
  801040:	000d883a 	mov	r6,zero
  801044:	000b883a 	mov	r5,zero
  801048:	e13ffd17 	ldw	r4,-12(fp)
  80104c:	08011780 	call	801178 <xQueueGenericSend>
			else
			{
				mtCOVERAGE_TEST_MARKER();
			}

			xReturn = pdPASS;
  801050:	00800044 	movi	r2,1
  801054:	e0bffc15 	stw	r2,-16(fp)
  801058:	00000106 	br	801060 <xQueueGiveMutexRecursive+0x74>
		}
		else
		{
			/* The mutex cannot be given because the calling task is not the
			holder. */
			xReturn = pdFAIL;
  80105c:	e03ffc15 	stw	zero,-16(fp)

			traceGIVE_MUTEX_RECURSIVE_FAILED( pxMutex );
		}

		return xReturn;
  801060:	e0bffc17 	ldw	r2,-16(fp)
	}
  801064:	e6ffff04 	addi	sp,fp,-4
  801068:	dfc00217 	ldw	ra,8(sp)
  80106c:	df000117 	ldw	fp,4(sp)
  801070:	dc000017 	ldw	r16,0(sp)
  801074:	dec00304 	addi	sp,sp,12
  801078:	f800283a 	ret

0080107c <xQueueTakeMutexRecursive>:
/*-----------------------------------------------------------*/

#if ( configUSE_RECURSIVE_MUTEXES == 1 )

	BaseType_t xQueueTakeMutexRecursive( QueueHandle_t xMutex, TickType_t xTicksToWait )
	{
  80107c:	defff904 	addi	sp,sp,-28
  801080:	dfc00615 	stw	ra,24(sp)
  801084:	df000515 	stw	fp,20(sp)
  801088:	dc000415 	stw	r16,16(sp)
  80108c:	df000504 	addi	fp,sp,20
  801090:	e13ffd15 	stw	r4,-12(fp)
  801094:	e17ffe15 	stw	r5,-8(fp)
	BaseType_t xReturn;
	Queue_t * const pxMutex = ( Queue_t * ) xMutex;
  801098:	e0bffd17 	ldw	r2,-12(fp)
  80109c:	e0bffc15 	stw	r2,-16(fp)
		/* Comments regarding mutual exclusion as per those within
		xQueueGiveMutexRecursive(). */

		traceTAKE_MUTEX_RECURSIVE( pxMutex );

		if( pxMutex->pxMutexHolder == ( void * ) xTaskGetCurrentTaskHandle() ) /*lint !e961 Cast is not redundant as TaskHandle_t is a typedef. */
  8010a0:	e0bffc17 	ldw	r2,-16(fp)
  8010a4:	14000117 	ldw	r16,4(r2)
  8010a8:	08036340 	call	803634 <xTaskGetCurrentTaskHandle>
  8010ac:	8080081e 	bne	r16,r2,8010d0 <xQueueTakeMutexRecursive+0x54>
		{
			( pxMutex->u.uxRecursiveCallCount )++;
  8010b0:	e0bffc17 	ldw	r2,-16(fp)
  8010b4:	10800317 	ldw	r2,12(r2)
  8010b8:	10c00044 	addi	r3,r2,1
  8010bc:	e0bffc17 	ldw	r2,-16(fp)
  8010c0:	10c00315 	stw	r3,12(r2)
			xReturn = pdPASS;
  8010c4:	00800044 	movi	r2,1
  8010c8:	e0bffb15 	stw	r2,-20(fp)
  8010cc:	00000d06 	br	801104 <xQueueTakeMutexRecursive+0x88>
		}
		else
		{
			xReturn = xQueueGenericReceive( pxMutex, NULL, xTicksToWait, pdFALSE );
  8010d0:	000f883a 	mov	r7,zero
  8010d4:	e1bffe17 	ldw	r6,-8(fp)
  8010d8:	000b883a 	mov	r5,zero
  8010dc:	e13ffc17 	ldw	r4,-16(fp)
  8010e0:	08014f00 	call	8014f0 <xQueueGenericReceive>
  8010e4:	e0bffb15 	stw	r2,-20(fp)

			/* pdPASS will only be returned if the mutex was successfully
			obtained.  The calling task may have entered the Blocked state
			before reaching here. */
			if( xReturn != pdFAIL )
  8010e8:	e0bffb17 	ldw	r2,-20(fp)
  8010ec:	10000526 	beq	r2,zero,801104 <xQueueTakeMutexRecursive+0x88>
			{
				( pxMutex->u.uxRecursiveCallCount )++;
  8010f0:	e0bffc17 	ldw	r2,-16(fp)
  8010f4:	10800317 	ldw	r2,12(r2)
  8010f8:	10c00044 	addi	r3,r2,1
  8010fc:	e0bffc17 	ldw	r2,-16(fp)
  801100:	10c00315 	stw	r3,12(r2)
			{
				traceTAKE_MUTEX_RECURSIVE_FAILED( pxMutex );
			}
		}

		return xReturn;
  801104:	e0bffb17 	ldw	r2,-20(fp)
	}
  801108:	e6ffff04 	addi	sp,fp,-4
  80110c:	dfc00217 	ldw	ra,8(sp)
  801110:	df000117 	ldw	fp,4(sp)
  801114:	dc000017 	ldw	r16,0(sp)
  801118:	dec00304 	addi	sp,sp,12
  80111c:	f800283a 	ret

00801120 <xQueueCreateCountingSemaphore>:
/*-----------------------------------------------------------*/

#if( ( configUSE_COUNTING_SEMAPHORES == 1 ) && ( configSUPPORT_DYNAMIC_ALLOCATION == 1 ) )

	QueueHandle_t xQueueCreateCountingSemaphore( const UBaseType_t uxMaxCount, const UBaseType_t uxInitialCount )
	{
  801120:	defffb04 	addi	sp,sp,-20
  801124:	dfc00415 	stw	ra,16(sp)
  801128:	df000315 	stw	fp,12(sp)
  80112c:	df000304 	addi	fp,sp,12
  801130:	e13ffe15 	stw	r4,-8(fp)
  801134:	e17fff15 	stw	r5,-4(fp)
	QueueHandle_t xHandle;

		configASSERT( uxMaxCount != 0 );
		configASSERT( uxInitialCount <= uxMaxCount );

		xHandle = xQueueGenericCreate( uxMaxCount, queueSEMAPHORE_QUEUE_ITEM_LENGTH, queueQUEUE_TYPE_COUNTING_SEMAPHORE );
  801138:	01800084 	movi	r6,2
  80113c:	000b883a 	mov	r5,zero
  801140:	e13ffe17 	ldw	r4,-8(fp)
  801144:	0800e0c0 	call	800e0c <xQueueGenericCreate>
  801148:	e0bffd15 	stw	r2,-12(fp)

		if( xHandle != NULL )
  80114c:	e0bffd17 	ldw	r2,-12(fp)
  801150:	10000326 	beq	r2,zero,801160 <xQueueCreateCountingSemaphore+0x40>
		{
			( ( Queue_t * ) xHandle )->uxMessagesWaiting = uxInitialCount;
  801154:	e0bffd17 	ldw	r2,-12(fp)
  801158:	e0ffff17 	ldw	r3,-4(fp)
  80115c:	10c00e15 	stw	r3,56(r2)
		else
		{
			traceCREATE_COUNTING_SEMAPHORE_FAILED();
		}

		return xHandle;
  801160:	e0bffd17 	ldw	r2,-12(fp)
	}
  801164:	e037883a 	mov	sp,fp
  801168:	dfc00117 	ldw	ra,4(sp)
  80116c:	df000017 	ldw	fp,0(sp)
  801170:	dec00204 	addi	sp,sp,8
  801174:	f800283a 	ret

00801178 <xQueueGenericSend>:

#endif /* ( ( configUSE_COUNTING_SEMAPHORES == 1 ) && ( configSUPPORT_DYNAMIC_ALLOCATION == 1 ) ) */
/*-----------------------------------------------------------*/

BaseType_t xQueueGenericSend( QueueHandle_t xQueue, const void * const pvItemToQueue, TickType_t xTicksToWait, const BaseType_t xCopyPosition )
{
  801178:	defff504 	addi	sp,sp,-44
  80117c:	dfc00a15 	stw	ra,40(sp)
  801180:	df000915 	stw	fp,36(sp)
  801184:	df000904 	addi	fp,sp,36
  801188:	e13ffc15 	stw	r4,-16(fp)
  80118c:	e17ffd15 	stw	r5,-12(fp)
  801190:	e1bffe15 	stw	r6,-8(fp)
  801194:	e1ffff15 	stw	r7,-4(fp)
BaseType_t xEntryTimeSet = pdFALSE, xYieldRequired;
  801198:	e03ff715 	stw	zero,-36(fp)
TimeOut_t xTimeOut;
Queue_t * const pxQueue = ( Queue_t * ) xQueue;
  80119c:	e0bffc17 	ldw	r2,-16(fp)
  8011a0:	e0bff815 	stw	r2,-32(fp)
	/* This function relaxes the coding standard somewhat to allow return
	statements within the function itself.  This is done in the interest
	of execution time efficiency. */
	for( ;; )
	{
		taskENTER_CRITICAL();
  8011a4:	08038ac0 	call	8038ac <vTaskEnterCritical>
		{
			/* Is there room on the queue now?  The running task must be the
			highest priority task wanting to access the queue.  If the head item
			in the queue is to be overwritten then it does not matter if the
			queue is full. */
			if( ( pxQueue->uxMessagesWaiting < pxQueue->uxLength ) || ( xCopyPosition == queueOVERWRITE ) )
  8011a8:	e0bff817 	ldw	r2,-32(fp)
  8011ac:	10c00e17 	ldw	r3,56(r2)
  8011b0:	e0bff817 	ldw	r2,-32(fp)
  8011b4:	10800f17 	ldw	r2,60(r2)
  8011b8:	18800336 	bltu	r3,r2,8011c8 <xQueueGenericSend+0x50>
  8011bc:	e0bfff17 	ldw	r2,-4(fp)
  8011c0:	10800098 	cmpnei	r2,r2,2
  8011c4:	1000151e 	bne	r2,zero,80121c <xQueueGenericSend+0xa4>
			{
				traceQUEUE_SEND( pxQueue );
				xYieldRequired = prvCopyDataToQueue( pxQueue, pvItemToQueue, xCopyPosition );
  8011c8:	e1bfff17 	ldw	r6,-4(fp)
  8011cc:	e17ffd17 	ldw	r5,-12(fp)
  8011d0:	e13ff817 	ldw	r4,-32(fp)
  8011d4:	08019840 	call	801984 <prvCopyDataToQueue>
  8011d8:	e0bff915 	stw	r2,-28(fp)
				}
				#else /* configUSE_QUEUE_SETS */
				{
					/* If there was a task waiting for data to arrive on the
					queue then unblock it now. */
					if( listLIST_IS_EMPTY( &( pxQueue->xTasksWaitingToReceive ) ) == pdFALSE )
  8011dc:	e0bff817 	ldw	r2,-32(fp)
  8011e0:	10800917 	ldw	r2,36(r2)
  8011e4:	10000726 	beq	r2,zero,801204 <xQueueGenericSend+0x8c>
					{
						if( xTaskRemoveFromEventList( &( pxQueue->xTasksWaitingToReceive ) ) != pdFALSE )
  8011e8:	e0bff817 	ldw	r2,-32(fp)
  8011ec:	10800904 	addi	r2,r2,36
  8011f0:	1009883a 	mov	r4,r2
  8011f4:	080301c0 	call	80301c <xTaskRemoveFromEventList>
  8011f8:	10000526 	beq	r2,zero,801210 <xQueueGenericSend+0x98>
						{
							/* The unblocked task has a priority higher than
							our own so yield immediately.  Yes it is ok to do
							this from within the critical section - the kernel
							takes care of that. */
							queueYIELD_IF_USING_PREEMPTION();
  8011fc:	003b683a 	trap	0
  801200:	00000306 	br	801210 <xQueueGenericSend+0x98>
						else
						{
							mtCOVERAGE_TEST_MARKER();
						}
					}
					else if( xYieldRequired != pdFALSE )
  801204:	e0bff917 	ldw	r2,-28(fp)
  801208:	10000126 	beq	r2,zero,801210 <xQueueGenericSend+0x98>
					{
						/* This path is a special case that will only get
						executed if the task was holding multiple mutexes and
						the mutexes were given back in an order that is
						different to that in which they were taken. */
						queueYIELD_IF_USING_PREEMPTION();
  80120c:	003b683a 	trap	0
						mtCOVERAGE_TEST_MARKER();
					}
				}
				#endif /* configUSE_QUEUE_SETS */

				taskEXIT_CRITICAL();
  801210:	08039000 	call	803900 <vTaskExitCritical>
				return pdPASS;
  801214:	00800044 	movi	r2,1
  801218:	00003f06 	br	801318 <xQueueGenericSend+0x1a0>
			}
			else
			{
				if( xTicksToWait == ( TickType_t ) 0 )
  80121c:	e0bffe17 	ldw	r2,-8(fp)
  801220:	1000031e 	bne	r2,zero,801230 <xQueueGenericSend+0xb8>
				{
					/* The queue was full and no block time is specified (or
					the block time has expired) so leave now. */
					taskEXIT_CRITICAL();
  801224:	08039000 	call	803900 <vTaskExitCritical>

					/* Return to the original privilege level before exiting
					the function. */
					traceQUEUE_SEND_FAILED( pxQueue );
					return errQUEUE_FULL;
  801228:	0005883a 	mov	r2,zero
  80122c:	00003a06 	br	801318 <xQueueGenericSend+0x1a0>
				}
				else if( xEntryTimeSet == pdFALSE )
  801230:	e0bff717 	ldw	r2,-36(fp)
  801234:	1000051e 	bne	r2,zero,80124c <xQueueGenericSend+0xd4>
				{
					/* The queue was full and a block time was specified so
					configure the timeout structure. */
					vTaskSetTimeOutState( &xTimeOut );
  801238:	e0bffa04 	addi	r2,fp,-24
  80123c:	1009883a 	mov	r4,r2
  801240:	08032000 	call	803200 <vTaskSetTimeOutState>
					xEntryTimeSet = pdTRUE;
  801244:	00800044 	movi	r2,1
  801248:	e0bff715 	stw	r2,-36(fp)
					/* Entry time was already set. */
					mtCOVERAGE_TEST_MARKER();
				}
			}
		}
		taskEXIT_CRITICAL();
  80124c:	08039000 	call	803900 <vTaskExitCritical>

		/* Interrupts and other tasks can send to and receive from the queue
		now the critical section has been exited. */

		vTaskSuspendAll();
  801250:	0802a4c0 	call	802a4c <vTaskSuspendAll>
		prvLockQueue( pxQueue );
  801254:	08038ac0 	call	8038ac <vTaskEnterCritical>
  801258:	e0bff817 	ldw	r2,-32(fp)
  80125c:	10801103 	ldbu	r2,68(r2)
  801260:	10803fcc 	andi	r2,r2,255
  801264:	1080201c 	xori	r2,r2,128
  801268:	10bfe004 	addi	r2,r2,-128
  80126c:	10bfffd8 	cmpnei	r2,r2,-1
  801270:	1000021e 	bne	r2,zero,80127c <xQueueGenericSend+0x104>
  801274:	e0bff817 	ldw	r2,-32(fp)
  801278:	10001105 	stb	zero,68(r2)
  80127c:	e0bff817 	ldw	r2,-32(fp)
  801280:	10801143 	ldbu	r2,69(r2)
  801284:	10803fcc 	andi	r2,r2,255
  801288:	1080201c 	xori	r2,r2,128
  80128c:	10bfe004 	addi	r2,r2,-128
  801290:	10bfffd8 	cmpnei	r2,r2,-1
  801294:	1000021e 	bne	r2,zero,8012a0 <xQueueGenericSend+0x128>
  801298:	e0bff817 	ldw	r2,-32(fp)
  80129c:	10001145 	stb	zero,69(r2)
  8012a0:	08039000 	call	803900 <vTaskExitCritical>

		/* Update the timeout state to see if it has expired yet. */
		if( xTaskCheckForTimeOut( &xTimeOut, &xTicksToWait ) == pdFALSE )
  8012a4:	e0fffe04 	addi	r3,fp,-8
  8012a8:	e0bffa04 	addi	r2,fp,-24
  8012ac:	180b883a 	mov	r5,r3
  8012b0:	1009883a 	mov	r4,r2
  8012b4:	080323c0 	call	80323c <xTaskCheckForTimeOut>
  8012b8:	1000131e 	bne	r2,zero,801308 <xQueueGenericSend+0x190>
		{
			if( prvIsQueueFull( pxQueue ) != pdFALSE )
  8012bc:	e13ff817 	ldw	r4,-32(fp)
  8012c0:	0801d300 	call	801d30 <prvIsQueueFull>
  8012c4:	10000c26 	beq	r2,zero,8012f8 <xQueueGenericSend+0x180>
			{
				traceBLOCKING_ON_QUEUE_SEND( pxQueue );
				vTaskPlaceOnEventList( &( pxQueue->xTasksWaitingToSend ), xTicksToWait );
  8012c8:	e0bff817 	ldw	r2,-32(fp)
  8012cc:	10800404 	addi	r2,r2,16
  8012d0:	e0fffe17 	ldw	r3,-8(fp)
  8012d4:	180b883a 	mov	r5,r3
  8012d8:	1009883a 	mov	r4,r2
  8012dc:	0802f680 	call	802f68 <vTaskPlaceOnEventList>
				/* Unlocking the queue means queue events can effect the
				event list.  It is possible	that interrupts occurring now
				remove this task from the event	list again - but as the
				scheduler is suspended the task will go onto the pending
				ready last instead of the actual ready list. */
				prvUnlockQueue( pxQueue );
  8012e0:	e13ff817 	ldw	r4,-32(fp)
  8012e4:	0801bac0 	call	801bac <prvUnlockQueue>
				/* Resuming the scheduler will move tasks from the pending
				ready list into the ready list - so it is feasible that this
				task is already in a ready list before it yields - in which
				case the yield will not cause a context switch unless there
				is also a higher priority task in the pending ready list. */
				if( xTaskResumeAll() == pdFALSE )
  8012e8:	0802a780 	call	802a78 <xTaskResumeAll>
  8012ec:	103fad1e 	bne	r2,zero,8011a4 <__alt_data_end+0xfff011a4>
				{
					portYIELD_WITHIN_API();
  8012f0:	003b683a 	trap	0
  8012f4:	003fab06 	br	8011a4 <__alt_data_end+0xfff011a4>
				}
			}
			else
			{
				/* Try again. */
				prvUnlockQueue( pxQueue );
  8012f8:	e13ff817 	ldw	r4,-32(fp)
  8012fc:	0801bac0 	call	801bac <prvUnlockQueue>
				( void ) xTaskResumeAll();
  801300:	0802a780 	call	802a78 <xTaskResumeAll>
  801304:	003fa706 	br	8011a4 <__alt_data_end+0xfff011a4>
			}
		}
		else
		{
			/* The timeout has expired. */
			prvUnlockQueue( pxQueue );
  801308:	e13ff817 	ldw	r4,-32(fp)
  80130c:	0801bac0 	call	801bac <prvUnlockQueue>
			( void ) xTaskResumeAll();
  801310:	0802a780 	call	802a78 <xTaskResumeAll>

			traceQUEUE_SEND_FAILED( pxQueue );
			return errQUEUE_FULL;
  801314:	0005883a 	mov	r2,zero
		}
	}
}
  801318:	e037883a 	mov	sp,fp
  80131c:	dfc00117 	ldw	ra,4(sp)
  801320:	df000017 	ldw	fp,0(sp)
  801324:	dec00204 	addi	sp,sp,8
  801328:	f800283a 	ret

0080132c <xQueueGenericSendFromISR>:
/*-----------------------------------------------------------*/

BaseType_t xQueueGenericSendFromISR( QueueHandle_t xQueue, const void * const pvItemToQueue, BaseType_t * const pxHigherPriorityTaskWoken, const BaseType_t xCopyPosition )
{
  80132c:	defff604 	addi	sp,sp,-40
  801330:	dfc00915 	stw	ra,36(sp)
  801334:	df000815 	stw	fp,32(sp)
  801338:	df000804 	addi	fp,sp,32
  80133c:	e13ffc15 	stw	r4,-16(fp)
  801340:	e17ffd15 	stw	r5,-12(fp)
  801344:	e1bffe15 	stw	r6,-8(fp)
  801348:	e1ffff15 	stw	r7,-4(fp)
BaseType_t xReturn;
UBaseType_t uxSavedInterruptStatus;
Queue_t * const pxQueue = ( Queue_t * ) xQueue;
  80134c:	e0bffc17 	ldw	r2,-16(fp)
  801350:	e0bff915 	stw	r2,-28(fp)
	/* Similar to xQueueGenericSend, except without blocking if there is no room
	in the queue.  Also don't directly wake a task that was blocked on a queue
	read, instead return a flag to say whether a context switch is required or
	not (i.e. has a task with a higher priority than us been woken by this
	post). */
	uxSavedInterruptStatus = portSET_INTERRUPT_MASK_FROM_ISR();
  801354:	e03ffa15 	stw	zero,-24(fp)
	{
		if( ( pxQueue->uxMessagesWaiting < pxQueue->uxLength ) || ( xCopyPosition == queueOVERWRITE ) )
  801358:	e0bff917 	ldw	r2,-28(fp)
  80135c:	10c00e17 	ldw	r3,56(r2)
  801360:	e0bff917 	ldw	r2,-28(fp)
  801364:	10800f17 	ldw	r2,60(r2)
  801368:	18800336 	bltu	r3,r2,801378 <xQueueGenericSendFromISR+0x4c>
  80136c:	e0bfff17 	ldw	r2,-4(fp)
  801370:	10800098 	cmpnei	r2,r2,2
  801374:	1000201e 	bne	r2,zero,8013f8 <xQueueGenericSendFromISR+0xcc>
		{
			const int8_t cTxLock = pxQueue->cTxLock;
  801378:	e0bff917 	ldw	r2,-28(fp)
  80137c:	10801143 	ldbu	r2,69(r2)
  801380:	e0bffb05 	stb	r2,-20(fp)
			/* Semaphores use xQueueGiveFromISR(), so pxQueue will not be a
			semaphore or mutex.  That means prvCopyDataToQueue() cannot result
			in a task disinheriting a priority and prvCopyDataToQueue() can be
			called here even though the disinherit function does not check if
			the scheduler is suspended before accessing the ready lists. */
			( void ) prvCopyDataToQueue( pxQueue, pvItemToQueue, xCopyPosition );
  801384:	e1bfff17 	ldw	r6,-4(fp)
  801388:	e17ffd17 	ldw	r5,-12(fp)
  80138c:	e13ff917 	ldw	r4,-28(fp)
  801390:	08019840 	call	801984 <prvCopyDataToQueue>

			/* The event list is not altered if the queue is locked.  This will
			be done when the queue is unlocked later. */
			if( cTxLock == queueUNLOCKED )
  801394:	e0bffb07 	ldb	r2,-20(fp)
  801398:	10bfffd8 	cmpnei	r2,r2,-1
  80139c:	10000e1e 	bne	r2,zero,8013d8 <xQueueGenericSendFromISR+0xac>
						}
					}
				}
				#else /* configUSE_QUEUE_SETS */
				{
					if( listLIST_IS_EMPTY( &( pxQueue->xTasksWaitingToReceive ) ) == pdFALSE )
  8013a0:	e0bff917 	ldw	r2,-28(fp)
  8013a4:	10800917 	ldw	r2,36(r2)
  8013a8:	10001026 	beq	r2,zero,8013ec <xQueueGenericSendFromISR+0xc0>
					{
						if( xTaskRemoveFromEventList( &( pxQueue->xTasksWaitingToReceive ) ) != pdFALSE )
  8013ac:	e0bff917 	ldw	r2,-28(fp)
  8013b0:	10800904 	addi	r2,r2,36
  8013b4:	1009883a 	mov	r4,r2
  8013b8:	080301c0 	call	80301c <xTaskRemoveFromEventList>
  8013bc:	10000b26 	beq	r2,zero,8013ec <xQueueGenericSendFromISR+0xc0>
						{
							/* The task waiting has a higher priority so record that a
							context	switch is required. */
							if( pxHigherPriorityTaskWoken != NULL )
  8013c0:	e0bffe17 	ldw	r2,-8(fp)
  8013c4:	10000926 	beq	r2,zero,8013ec <xQueueGenericSendFromISR+0xc0>
							{
								*pxHigherPriorityTaskWoken = pdTRUE;
  8013c8:	e0bffe17 	ldw	r2,-8(fp)
  8013cc:	00c00044 	movi	r3,1
  8013d0:	10c00015 	stw	r3,0(r2)
  8013d4:	00000506 	br	8013ec <xQueueGenericSendFromISR+0xc0>
			}
			else
			{
				/* Increment the lock count so the task that unlocks the queue
				knows that data was posted while it was locked. */
				pxQueue->cTxLock = ( int8_t ) ( cTxLock + 1 );
  8013d8:	e0bffb03 	ldbu	r2,-20(fp)
  8013dc:	10800044 	addi	r2,r2,1
  8013e0:	1007883a 	mov	r3,r2
  8013e4:	e0bff917 	ldw	r2,-28(fp)
  8013e8:	10c01145 	stb	r3,69(r2)
			}

			xReturn = pdPASS;
  8013ec:	00800044 	movi	r2,1
  8013f0:	e0bff815 	stw	r2,-32(fp)
	not (i.e. has a task with a higher priority than us been woken by this
	post). */
	uxSavedInterruptStatus = portSET_INTERRUPT_MASK_FROM_ISR();
	{
		if( ( pxQueue->uxMessagesWaiting < pxQueue->uxLength ) || ( xCopyPosition == queueOVERWRITE ) )
		{
  8013f4:	00000106 	br	8013fc <xQueueGenericSendFromISR+0xd0>
			xReturn = pdPASS;
		}
		else
		{
			traceQUEUE_SEND_FROM_ISR_FAILED( pxQueue );
			xReturn = errQUEUE_FULL;
  8013f8:	e03ff815 	stw	zero,-32(fp)
		}
	}
	portCLEAR_INTERRUPT_MASK_FROM_ISR( uxSavedInterruptStatus );

	return xReturn;
  8013fc:	e0bff817 	ldw	r2,-32(fp)
}
  801400:	e037883a 	mov	sp,fp
  801404:	dfc00117 	ldw	ra,4(sp)
  801408:	df000017 	ldw	fp,0(sp)
  80140c:	dec00204 	addi	sp,sp,8
  801410:	f800283a 	ret

00801414 <xQueueGiveFromISR>:
/*-----------------------------------------------------------*/

BaseType_t xQueueGiveFromISR( QueueHandle_t xQueue, BaseType_t * const pxHigherPriorityTaskWoken )
{
  801414:	defff704 	addi	sp,sp,-36
  801418:	dfc00815 	stw	ra,32(sp)
  80141c:	df000715 	stw	fp,28(sp)
  801420:	df000704 	addi	fp,sp,28
  801424:	e13ffe15 	stw	r4,-8(fp)
  801428:	e17fff15 	stw	r5,-4(fp)
BaseType_t xReturn;
UBaseType_t uxSavedInterruptStatus;
Queue_t * const pxQueue = ( Queue_t * ) xQueue;
  80142c:	e0bffe17 	ldw	r2,-8(fp)
  801430:	e0bffa15 	stw	r2,-24(fp)
	safe API to ensure interrupt entry is as fast and as simple as possible.
	More information (albeit Cortex-M specific) is provided on the following
	link: http://www.freertos.org/RTOS-Cortex-M3-M4.html */
	portASSERT_IF_INTERRUPT_PRIORITY_INVALID();

	uxSavedInterruptStatus = portSET_INTERRUPT_MASK_FROM_ISR();
  801434:	e03ffb15 	stw	zero,-20(fp)
	{
		const UBaseType_t uxMessagesWaiting = pxQueue->uxMessagesWaiting;
  801438:	e0bffa17 	ldw	r2,-24(fp)
  80143c:	10800e17 	ldw	r2,56(r2)
  801440:	e0bffc15 	stw	r2,-16(fp)

		/* When the queue is used to implement a semaphore no data is ever
		moved through the queue but it is still valid to see if the queue 'has
		space'. */
		if( uxMessagesWaiting < pxQueue->uxLength )
  801444:	e0bffa17 	ldw	r2,-24(fp)
  801448:	10800f17 	ldw	r2,60(r2)
  80144c:	e0fffc17 	ldw	r3,-16(fp)
  801450:	1880202e 	bgeu	r3,r2,8014d4 <xQueueGiveFromISR+0xc0>
		{
			const int8_t cTxLock = pxQueue->cTxLock;
  801454:	e0bffa17 	ldw	r2,-24(fp)
  801458:	10801143 	ldbu	r2,69(r2)
  80145c:	e0bffd05 	stb	r2,-12(fp)
			holder - and if there is a mutex holder then the mutex cannot be
			given from an ISR.  As this is the ISR version of the function it
			can be assumed there is no mutex holder and no need to determine if
			priority disinheritance is needed.  Simply increase the count of
			messages (semaphores) available. */
			pxQueue->uxMessagesWaiting = uxMessagesWaiting + 1;
  801460:	e0bffc17 	ldw	r2,-16(fp)
  801464:	10c00044 	addi	r3,r2,1
  801468:	e0bffa17 	ldw	r2,-24(fp)
  80146c:	10c00e15 	stw	r3,56(r2)

			/* The event list is not altered if the queue is locked.  This will
			be done when the queue is unlocked later. */
			if( cTxLock == queueUNLOCKED )
  801470:	e0bffd07 	ldb	r2,-12(fp)
  801474:	10bfffd8 	cmpnei	r2,r2,-1
  801478:	10000e1e 	bne	r2,zero,8014b4 <xQueueGiveFromISR+0xa0>
						}
					}
				}
				#else /* configUSE_QUEUE_SETS */
				{
					if( listLIST_IS_EMPTY( &( pxQueue->xTasksWaitingToReceive ) ) == pdFALSE )
  80147c:	e0bffa17 	ldw	r2,-24(fp)
  801480:	10800917 	ldw	r2,36(r2)
  801484:	10001026 	beq	r2,zero,8014c8 <xQueueGiveFromISR+0xb4>
					{
						if( xTaskRemoveFromEventList( &( pxQueue->xTasksWaitingToReceive ) ) != pdFALSE )
  801488:	e0bffa17 	ldw	r2,-24(fp)
  80148c:	10800904 	addi	r2,r2,36
  801490:	1009883a 	mov	r4,r2
  801494:	080301c0 	call	80301c <xTaskRemoveFromEventList>
  801498:	10000b26 	beq	r2,zero,8014c8 <xQueueGiveFromISR+0xb4>
						{
							/* The task waiting has a higher priority so record that a
							context	switch is required. */
							if( pxHigherPriorityTaskWoken != NULL )
  80149c:	e0bfff17 	ldw	r2,-4(fp)
  8014a0:	10000926 	beq	r2,zero,8014c8 <xQueueGiveFromISR+0xb4>
							{
								*pxHigherPriorityTaskWoken = pdTRUE;
  8014a4:	e0bfff17 	ldw	r2,-4(fp)
  8014a8:	00c00044 	movi	r3,1
  8014ac:	10c00015 	stw	r3,0(r2)
  8014b0:	00000506 	br	8014c8 <xQueueGiveFromISR+0xb4>
			}
			else
			{
				/* Increment the lock count so the task that unlocks the queue
				knows that data was posted while it was locked. */
				pxQueue->cTxLock = ( int8_t ) ( cTxLock + 1 );
  8014b4:	e0bffd03 	ldbu	r2,-12(fp)
  8014b8:	10800044 	addi	r2,r2,1
  8014bc:	1007883a 	mov	r3,r2
  8014c0:	e0bffa17 	ldw	r2,-24(fp)
  8014c4:	10c01145 	stb	r3,69(r2)
			}

			xReturn = pdPASS;
  8014c8:	00800044 	movi	r2,1
  8014cc:	e0bff915 	stw	r2,-28(fp)
  8014d0:	00000106 	br	8014d8 <xQueueGiveFromISR+0xc4>
		}
		else
		{
			traceQUEUE_SEND_FROM_ISR_FAILED( pxQueue );
			xReturn = errQUEUE_FULL;
  8014d4:	e03ff915 	stw	zero,-28(fp)
		}
	}
	portCLEAR_INTERRUPT_MASK_FROM_ISR( uxSavedInterruptStatus );

	return xReturn;
  8014d8:	e0bff917 	ldw	r2,-28(fp)
}
  8014dc:	e037883a 	mov	sp,fp
  8014e0:	dfc00117 	ldw	ra,4(sp)
  8014e4:	df000017 	ldw	fp,0(sp)
  8014e8:	dec00204 	addi	sp,sp,8
  8014ec:	f800283a 	ret

008014f0 <xQueueGenericReceive>:
/*-----------------------------------------------------------*/

BaseType_t xQueueGenericReceive( QueueHandle_t xQueue, void * const pvBuffer, TickType_t xTicksToWait, const BaseType_t xJustPeeking )
{
  8014f0:	defff404 	addi	sp,sp,-48
  8014f4:	dfc00b15 	stw	ra,44(sp)
  8014f8:	df000a15 	stw	fp,40(sp)
  8014fc:	df000a04 	addi	fp,sp,40
  801500:	e13ffc15 	stw	r4,-16(fp)
  801504:	e17ffd15 	stw	r5,-12(fp)
  801508:	e1bffe15 	stw	r6,-8(fp)
  80150c:	e1ffff15 	stw	r7,-4(fp)
BaseType_t xEntryTimeSet = pdFALSE;
  801510:	e03ff615 	stw	zero,-40(fp)
TimeOut_t xTimeOut;
int8_t *pcOriginalReadPosition;
Queue_t * const pxQueue = ( Queue_t * ) xQueue;
  801514:	e0bffc17 	ldw	r2,-16(fp)
  801518:	e0bff715 	stw	r2,-36(fp)
	statements within the function itself.  This is done in the interest
	of execution time efficiency. */

	for( ;; )
	{
		taskENTER_CRITICAL();
  80151c:	08038ac0 	call	8038ac <vTaskEnterCritical>
		{
			const UBaseType_t uxMessagesWaiting = pxQueue->uxMessagesWaiting;
  801520:	e0bff717 	ldw	r2,-36(fp)
  801524:	10800e17 	ldw	r2,56(r2)
  801528:	e0bff815 	stw	r2,-32(fp)

			/* Is there data in the queue now?  To be running the calling task
			must be the highest priority task wanting to access the queue. */
			if( uxMessagesWaiting > ( UBaseType_t ) 0 )
  80152c:	e0bff817 	ldw	r2,-32(fp)
  801530:	10002c26 	beq	r2,zero,8015e4 <xQueueGenericReceive+0xf4>
			{
				/* Remember the read position in case the queue is only being
				peeked. */
				pcOriginalReadPosition = pxQueue->u.pcReadFrom;
  801534:	e0bff717 	ldw	r2,-36(fp)
  801538:	10800317 	ldw	r2,12(r2)
  80153c:	e0bff915 	stw	r2,-28(fp)

				prvCopyDataFromQueue( pxQueue, pvBuffer );
  801540:	e17ffd17 	ldw	r5,-12(fp)
  801544:	e13ff717 	ldw	r4,-36(fp)
  801548:	0801b100 	call	801b10 <prvCopyDataFromQueue>

				if( xJustPeeking == pdFALSE )
  80154c:	e0bfff17 	ldw	r2,-4(fp)
  801550:	1000151e 	bne	r2,zero,8015a8 <xQueueGenericReceive+0xb8>
				{
					traceQUEUE_RECEIVE( pxQueue );

					/* Actually removing data, not just peeking. */
					pxQueue->uxMessagesWaiting = uxMessagesWaiting - 1;
  801554:	e0bff817 	ldw	r2,-32(fp)
  801558:	10ffffc4 	addi	r3,r2,-1
  80155c:	e0bff717 	ldw	r2,-36(fp)
  801560:	10c00e15 	stw	r3,56(r2)

					#if ( configUSE_MUTEXES == 1 )
					{
						if( pxQueue->uxQueueType == queueQUEUE_IS_MUTEX )
  801564:	e0bff717 	ldw	r2,-36(fp)
  801568:	10800017 	ldw	r2,0(r2)
  80156c:	1000041e 	bne	r2,zero,801580 <xQueueGenericReceive+0x90>
						{
							/* Record the information required to implement
							priority inheritance should it become necessary. */
							pxQueue->pxMutexHolder = ( int8_t * ) pvTaskIncrementMutexHeldCount(); /*lint !e961 Cast is not redundant as TaskHandle_t is a typedef. */
  801570:	08039a40 	call	8039a4 <pvTaskIncrementMutexHeldCount>
  801574:	1007883a 	mov	r3,r2
  801578:	e0bff717 	ldw	r2,-36(fp)
  80157c:	10c00115 	stw	r3,4(r2)
							mtCOVERAGE_TEST_MARKER();
						}
					}
					#endif /* configUSE_MUTEXES */

					if( listLIST_IS_EMPTY( &( pxQueue->xTasksWaitingToSend ) ) == pdFALSE )
  801580:	e0bff717 	ldw	r2,-36(fp)
  801584:	10800417 	ldw	r2,16(r2)
  801588:	10001326 	beq	r2,zero,8015d8 <xQueueGenericReceive+0xe8>
					{
						if( xTaskRemoveFromEventList( &( pxQueue->xTasksWaitingToSend ) ) != pdFALSE )
  80158c:	e0bff717 	ldw	r2,-36(fp)
  801590:	10800404 	addi	r2,r2,16
  801594:	1009883a 	mov	r4,r2
  801598:	080301c0 	call	80301c <xTaskRemoveFromEventList>
  80159c:	10000e26 	beq	r2,zero,8015d8 <xQueueGenericReceive+0xe8>
						{
							queueYIELD_IF_USING_PREEMPTION();
  8015a0:	003b683a 	trap	0
  8015a4:	00000c06 	br	8015d8 <xQueueGenericReceive+0xe8>
				{
					traceQUEUE_PEEK( pxQueue );

					/* The data is not being removed, so reset the read
					pointer. */
					pxQueue->u.pcReadFrom = pcOriginalReadPosition;
  8015a8:	e0bff717 	ldw	r2,-36(fp)
  8015ac:	e0fff917 	ldw	r3,-28(fp)
  8015b0:	10c00315 	stw	r3,12(r2)

					/* The data is being left in the queue, so see if there are
					any other tasks waiting for the data. */
					if( listLIST_IS_EMPTY( &( pxQueue->xTasksWaitingToReceive ) ) == pdFALSE )
  8015b4:	e0bff717 	ldw	r2,-36(fp)
  8015b8:	10800917 	ldw	r2,36(r2)
  8015bc:	10000626 	beq	r2,zero,8015d8 <xQueueGenericReceive+0xe8>
					{
						if( xTaskRemoveFromEventList( &( pxQueue->xTasksWaitingToReceive ) ) != pdFALSE )
  8015c0:	e0bff717 	ldw	r2,-36(fp)
  8015c4:	10800904 	addi	r2,r2,36
  8015c8:	1009883a 	mov	r4,r2
  8015cc:	080301c0 	call	80301c <xTaskRemoveFromEventList>
  8015d0:	10000126 	beq	r2,zero,8015d8 <xQueueGenericReceive+0xe8>
						{
							/* The task waiting has a higher priority than this task. */
							queueYIELD_IF_USING_PREEMPTION();
  8015d4:	003b683a 	trap	0
					{
						mtCOVERAGE_TEST_MARKER();
					}
				}

				taskEXIT_CRITICAL();
  8015d8:	08039000 	call	803900 <vTaskExitCritical>
				return pdPASS;
  8015dc:	00800044 	movi	r2,1
  8015e0:	00004b06 	br	801710 <xQueueGenericReceive+0x220>
			}
			else
			{
				if( xTicksToWait == ( TickType_t ) 0 )
  8015e4:	e0bffe17 	ldw	r2,-8(fp)
  8015e8:	1000031e 	bne	r2,zero,8015f8 <xQueueGenericReceive+0x108>
				{
					/* The queue was empty and no block time is specified (or
					the block time has expired) so leave now. */
					taskEXIT_CRITICAL();
  8015ec:	08039000 	call	803900 <vTaskExitCritical>
					traceQUEUE_RECEIVE_FAILED( pxQueue );
					return errQUEUE_EMPTY;
  8015f0:	0005883a 	mov	r2,zero
  8015f4:	00004606 	br	801710 <xQueueGenericReceive+0x220>
				}
				else if( xEntryTimeSet == pdFALSE )
  8015f8:	e0bff617 	ldw	r2,-40(fp)
  8015fc:	1000051e 	bne	r2,zero,801614 <xQueueGenericReceive+0x124>
				{
					/* The queue was empty and a block time was specified so
					configure the timeout structure. */
					vTaskSetTimeOutState( &xTimeOut );
  801600:	e0bffa04 	addi	r2,fp,-24
  801604:	1009883a 	mov	r4,r2
  801608:	08032000 	call	803200 <vTaskSetTimeOutState>
					xEntryTimeSet = pdTRUE;
  80160c:	00800044 	movi	r2,1
  801610:	e0bff615 	stw	r2,-40(fp)
					/* Entry time was already set. */
					mtCOVERAGE_TEST_MARKER();
				}
			}
		}
		taskEXIT_CRITICAL();
  801614:	08039000 	call	803900 <vTaskExitCritical>

		/* Interrupts and other tasks can send to and receive from the queue
		now the critical section has been exited. */

		vTaskSuspendAll();
  801618:	0802a4c0 	call	802a4c <vTaskSuspendAll>
		prvLockQueue( pxQueue );
  80161c:	08038ac0 	call	8038ac <vTaskEnterCritical>
  801620:	e0bff717 	ldw	r2,-36(fp)
  801624:	10801103 	ldbu	r2,68(r2)
  801628:	10803fcc 	andi	r2,r2,255
  80162c:	1080201c 	xori	r2,r2,128
  801630:	10bfe004 	addi	r2,r2,-128
  801634:	10bfffd8 	cmpnei	r2,r2,-1
  801638:	1000021e 	bne	r2,zero,801644 <xQueueGenericReceive+0x154>
  80163c:	e0bff717 	ldw	r2,-36(fp)
  801640:	10001105 	stb	zero,68(r2)
  801644:	e0bff717 	ldw	r2,-36(fp)
  801648:	10801143 	ldbu	r2,69(r2)
  80164c:	10803fcc 	andi	r2,r2,255
  801650:	1080201c 	xori	r2,r2,128
  801654:	10bfe004 	addi	r2,r2,-128
  801658:	10bfffd8 	cmpnei	r2,r2,-1
  80165c:	1000021e 	bne	r2,zero,801668 <xQueueGenericReceive+0x178>
  801660:	e0bff717 	ldw	r2,-36(fp)
  801664:	10001145 	stb	zero,69(r2)
  801668:	08039000 	call	803900 <vTaskExitCritical>

		/* Update the timeout state to see if it has expired yet. */
		if( xTaskCheckForTimeOut( &xTimeOut, &xTicksToWait ) == pdFALSE )
  80166c:	e0fffe04 	addi	r3,fp,-8
  801670:	e0bffa04 	addi	r2,fp,-24
  801674:	180b883a 	mov	r5,r3
  801678:	1009883a 	mov	r4,r2
  80167c:	080323c0 	call	80323c <xTaskCheckForTimeOut>
  801680:	10001c1e 	bne	r2,zero,8016f4 <xQueueGenericReceive+0x204>
		{
			if( prvIsQueueEmpty( pxQueue ) != pdFALSE )
  801684:	e13ff717 	ldw	r4,-36(fp)
  801688:	0801ca00 	call	801ca0 <prvIsQueueEmpty>
  80168c:	10001526 	beq	r2,zero,8016e4 <xQueueGenericReceive+0x1f4>
			{
				traceBLOCKING_ON_QUEUE_RECEIVE( pxQueue );

				#if ( configUSE_MUTEXES == 1 )
				{
					if( pxQueue->uxQueueType == queueQUEUE_IS_MUTEX )
  801690:	e0bff717 	ldw	r2,-36(fp)
  801694:	10800017 	ldw	r2,0(r2)
  801698:	1000061e 	bne	r2,zero,8016b4 <xQueueGenericReceive+0x1c4>
					{
						taskENTER_CRITICAL();
  80169c:	08038ac0 	call	8038ac <vTaskEnterCritical>
						{
							vTaskPriorityInherit( ( void * ) pxQueue->pxMutexHolder );
  8016a0:	e0bff717 	ldw	r2,-36(fp)
  8016a4:	10800117 	ldw	r2,4(r2)
  8016a8:	1009883a 	mov	r4,r2
  8016ac:	080365c0 	call	80365c <vTaskPriorityInherit>
						}
						taskEXIT_CRITICAL();
  8016b0:	08039000 	call	803900 <vTaskExitCritical>
						mtCOVERAGE_TEST_MARKER();
					}
				}
				#endif

				vTaskPlaceOnEventList( &( pxQueue->xTasksWaitingToReceive ), xTicksToWait );
  8016b4:	e0bff717 	ldw	r2,-36(fp)
  8016b8:	10800904 	addi	r2,r2,36
  8016bc:	e0fffe17 	ldw	r3,-8(fp)
  8016c0:	180b883a 	mov	r5,r3
  8016c4:	1009883a 	mov	r4,r2
  8016c8:	0802f680 	call	802f68 <vTaskPlaceOnEventList>
				prvUnlockQueue( pxQueue );
  8016cc:	e13ff717 	ldw	r4,-36(fp)
  8016d0:	0801bac0 	call	801bac <prvUnlockQueue>
				if( xTaskResumeAll() == pdFALSE )
  8016d4:	0802a780 	call	802a78 <xTaskResumeAll>
  8016d8:	103f901e 	bne	r2,zero,80151c <__alt_data_end+0xfff0151c>
				{
					portYIELD_WITHIN_API();
  8016dc:	003b683a 	trap	0
  8016e0:	003f8e06 	br	80151c <__alt_data_end+0xfff0151c>
				}
			}
			else
			{
				/* Try again. */
				prvUnlockQueue( pxQueue );
  8016e4:	e13ff717 	ldw	r4,-36(fp)
  8016e8:	0801bac0 	call	801bac <prvUnlockQueue>
				( void ) xTaskResumeAll();
  8016ec:	0802a780 	call	802a78 <xTaskResumeAll>
  8016f0:	003f8a06 	br	80151c <__alt_data_end+0xfff0151c>
			}
		}
		else
		{
			prvUnlockQueue( pxQueue );
  8016f4:	e13ff717 	ldw	r4,-36(fp)
  8016f8:	0801bac0 	call	801bac <prvUnlockQueue>
			( void ) xTaskResumeAll();
  8016fc:	0802a780 	call	802a78 <xTaskResumeAll>

			if( prvIsQueueEmpty( pxQueue ) != pdFALSE )
  801700:	e13ff717 	ldw	r4,-36(fp)
  801704:	0801ca00 	call	801ca0 <prvIsQueueEmpty>
  801708:	103f8426 	beq	r2,zero,80151c <__alt_data_end+0xfff0151c>
			{
				traceQUEUE_RECEIVE_FAILED( pxQueue );
				return errQUEUE_EMPTY;
  80170c:	0005883a 	mov	r2,zero
			{
				mtCOVERAGE_TEST_MARKER();
			}
		}
	}
}
  801710:	e037883a 	mov	sp,fp
  801714:	dfc00117 	ldw	ra,4(sp)
  801718:	df000017 	ldw	fp,0(sp)
  80171c:	dec00204 	addi	sp,sp,8
  801720:	f800283a 	ret

00801724 <xQueueReceiveFromISR>:
/*-----------------------------------------------------------*/

BaseType_t xQueueReceiveFromISR( QueueHandle_t xQueue, void * const pvBuffer, BaseType_t * const pxHigherPriorityTaskWoken )
{
  801724:	defff604 	addi	sp,sp,-40
  801728:	dfc00915 	stw	ra,36(sp)
  80172c:	df000815 	stw	fp,32(sp)
  801730:	df000804 	addi	fp,sp,32
  801734:	e13ffd15 	stw	r4,-12(fp)
  801738:	e17ffe15 	stw	r5,-8(fp)
  80173c:	e1bfff15 	stw	r6,-4(fp)
BaseType_t xReturn;
UBaseType_t uxSavedInterruptStatus;
Queue_t * const pxQueue = ( Queue_t * ) xQueue;
  801740:	e0bffd17 	ldw	r2,-12(fp)
  801744:	e0bff915 	stw	r2,-28(fp)
	safe API to ensure interrupt entry is as fast and as simple as possible.
	More information (albeit Cortex-M specific) is provided on the following
	link: http://www.freertos.org/RTOS-Cortex-M3-M4.html */
	portASSERT_IF_INTERRUPT_PRIORITY_INVALID();

	uxSavedInterruptStatus = portSET_INTERRUPT_MASK_FROM_ISR();
  801748:	e03ffa15 	stw	zero,-24(fp)
	{
		const UBaseType_t uxMessagesWaiting = pxQueue->uxMessagesWaiting;
  80174c:	e0bff917 	ldw	r2,-28(fp)
  801750:	10800e17 	ldw	r2,56(r2)
  801754:	e0bffb15 	stw	r2,-20(fp)

		/* Cannot block in an ISR, so check there is data available. */
		if( uxMessagesWaiting > ( UBaseType_t ) 0 )
  801758:	e0bffb17 	ldw	r2,-20(fp)
  80175c:	10002326 	beq	r2,zero,8017ec <xQueueReceiveFromISR+0xc8>
		{
			const int8_t cRxLock = pxQueue->cRxLock;
  801760:	e0bff917 	ldw	r2,-28(fp)
  801764:	10801103 	ldbu	r2,68(r2)
  801768:	e0bffc05 	stb	r2,-16(fp)

			traceQUEUE_RECEIVE_FROM_ISR( pxQueue );

			prvCopyDataFromQueue( pxQueue, pvBuffer );
  80176c:	e17ffe17 	ldw	r5,-8(fp)
  801770:	e13ff917 	ldw	r4,-28(fp)
  801774:	0801b100 	call	801b10 <prvCopyDataFromQueue>
			pxQueue->uxMessagesWaiting = uxMessagesWaiting - 1;
  801778:	e0bffb17 	ldw	r2,-20(fp)
  80177c:	10ffffc4 	addi	r3,r2,-1
  801780:	e0bff917 	ldw	r2,-28(fp)
  801784:	10c00e15 	stw	r3,56(r2)

			/* If the queue is locked the event list will not be modified.
			Instead update the lock count so the task that unlocks the queue
			will know that an ISR has removed data while the queue was
			locked. */
			if( cRxLock == queueUNLOCKED )
  801788:	e0bffc07 	ldb	r2,-16(fp)
  80178c:	10bfffd8 	cmpnei	r2,r2,-1
  801790:	10000e1e 	bne	r2,zero,8017cc <xQueueReceiveFromISR+0xa8>
			{
				if( listLIST_IS_EMPTY( &( pxQueue->xTasksWaitingToSend ) ) == pdFALSE )
  801794:	e0bff917 	ldw	r2,-28(fp)
  801798:	10800417 	ldw	r2,16(r2)
  80179c:	10001026 	beq	r2,zero,8017e0 <xQueueReceiveFromISR+0xbc>
				{
					if( xTaskRemoveFromEventList( &( pxQueue->xTasksWaitingToSend ) ) != pdFALSE )
  8017a0:	e0bff917 	ldw	r2,-28(fp)
  8017a4:	10800404 	addi	r2,r2,16
  8017a8:	1009883a 	mov	r4,r2
  8017ac:	080301c0 	call	80301c <xTaskRemoveFromEventList>
  8017b0:	10000b26 	beq	r2,zero,8017e0 <xQueueReceiveFromISR+0xbc>
					{
						/* The task waiting has a higher priority than us so
						force a context switch. */
						if( pxHigherPriorityTaskWoken != NULL )
  8017b4:	e0bfff17 	ldw	r2,-4(fp)
  8017b8:	10000926 	beq	r2,zero,8017e0 <xQueueReceiveFromISR+0xbc>
						{
							*pxHigherPriorityTaskWoken = pdTRUE;
  8017bc:	e0bfff17 	ldw	r2,-4(fp)
  8017c0:	00c00044 	movi	r3,1
  8017c4:	10c00015 	stw	r3,0(r2)
  8017c8:	00000506 	br	8017e0 <xQueueReceiveFromISR+0xbc>
			}
			else
			{
				/* Increment the lock count so the task that unlocks the queue
				knows that data was removed while it was locked. */
				pxQueue->cRxLock = ( int8_t ) ( cRxLock + 1 );
  8017cc:	e0bffc03 	ldbu	r2,-16(fp)
  8017d0:	10800044 	addi	r2,r2,1
  8017d4:	1007883a 	mov	r3,r2
  8017d8:	e0bff917 	ldw	r2,-28(fp)
  8017dc:	10c01105 	stb	r3,68(r2)
			}

			xReturn = pdPASS;
  8017e0:	00800044 	movi	r2,1
  8017e4:	e0bff815 	stw	r2,-32(fp)
  8017e8:	00000106 	br	8017f0 <xQueueReceiveFromISR+0xcc>
		}
		else
		{
			xReturn = pdFAIL;
  8017ec:	e03ff815 	stw	zero,-32(fp)
			traceQUEUE_RECEIVE_FROM_ISR_FAILED( pxQueue );
		}
	}
	portCLEAR_INTERRUPT_MASK_FROM_ISR( uxSavedInterruptStatus );

	return xReturn;
  8017f0:	e0bff817 	ldw	r2,-32(fp)
}
  8017f4:	e037883a 	mov	sp,fp
  8017f8:	dfc00117 	ldw	ra,4(sp)
  8017fc:	df000017 	ldw	fp,0(sp)
  801800:	dec00204 	addi	sp,sp,8
  801804:	f800283a 	ret

00801808 <xQueuePeekFromISR>:
/*-----------------------------------------------------------*/

BaseType_t xQueuePeekFromISR( QueueHandle_t xQueue,  void * const pvBuffer )
{
  801808:	defff804 	addi	sp,sp,-32
  80180c:	dfc00715 	stw	ra,28(sp)
  801810:	df000615 	stw	fp,24(sp)
  801814:	df000604 	addi	fp,sp,24
  801818:	e13ffe15 	stw	r4,-8(fp)
  80181c:	e17fff15 	stw	r5,-4(fp)
BaseType_t xReturn;
UBaseType_t uxSavedInterruptStatus;
int8_t *pcOriginalReadPosition;
Queue_t * const pxQueue = ( Queue_t * ) xQueue;
  801820:	e0bffe17 	ldw	r2,-8(fp)
  801824:	e0bffb15 	stw	r2,-20(fp)
	safe API to ensure interrupt entry is as fast and as simple as possible.
	More information (albeit Cortex-M specific) is provided on the following
	link: http://www.freertos.org/RTOS-Cortex-M3-M4.html */
	portASSERT_IF_INTERRUPT_PRIORITY_INVALID();

	uxSavedInterruptStatus = portSET_INTERRUPT_MASK_FROM_ISR();
  801828:	e03ffc15 	stw	zero,-16(fp)
	{
		/* Cannot block in an ISR, so check there is data available. */
		if( pxQueue->uxMessagesWaiting > ( UBaseType_t ) 0 )
  80182c:	e0bffb17 	ldw	r2,-20(fp)
  801830:	10800e17 	ldw	r2,56(r2)
  801834:	10000c26 	beq	r2,zero,801868 <xQueuePeekFromISR+0x60>
		{
			traceQUEUE_PEEK_FROM_ISR( pxQueue );

			/* Remember the read position so it can be reset as nothing is
			actually being removed from the queue. */
			pcOriginalReadPosition = pxQueue->u.pcReadFrom;
  801838:	e0bffb17 	ldw	r2,-20(fp)
  80183c:	10800317 	ldw	r2,12(r2)
  801840:	e0bffd15 	stw	r2,-12(fp)
			prvCopyDataFromQueue( pxQueue, pvBuffer );
  801844:	e17fff17 	ldw	r5,-4(fp)
  801848:	e13ffb17 	ldw	r4,-20(fp)
  80184c:	0801b100 	call	801b10 <prvCopyDataFromQueue>
			pxQueue->u.pcReadFrom = pcOriginalReadPosition;
  801850:	e0bffb17 	ldw	r2,-20(fp)
  801854:	e0fffd17 	ldw	r3,-12(fp)
  801858:	10c00315 	stw	r3,12(r2)

			xReturn = pdPASS;
  80185c:	00800044 	movi	r2,1
  801860:	e0bffa15 	stw	r2,-24(fp)
  801864:	00000106 	br	80186c <xQueuePeekFromISR+0x64>
		}
		else
		{
			xReturn = pdFAIL;
  801868:	e03ffa15 	stw	zero,-24(fp)
			traceQUEUE_PEEK_FROM_ISR_FAILED( pxQueue );
		}
	}
	portCLEAR_INTERRUPT_MASK_FROM_ISR( uxSavedInterruptStatus );

	return xReturn;
  80186c:	e0bffa17 	ldw	r2,-24(fp)
}
  801870:	e037883a 	mov	sp,fp
  801874:	dfc00117 	ldw	ra,4(sp)
  801878:	df000017 	ldw	fp,0(sp)
  80187c:	dec00204 	addi	sp,sp,8
  801880:	f800283a 	ret

00801884 <uxQueueMessagesWaiting>:
/*-----------------------------------------------------------*/

UBaseType_t uxQueueMessagesWaiting( const QueueHandle_t xQueue )
{
  801884:	defffc04 	addi	sp,sp,-16
  801888:	dfc00315 	stw	ra,12(sp)
  80188c:	df000215 	stw	fp,8(sp)
  801890:	df000204 	addi	fp,sp,8
  801894:	e13fff15 	stw	r4,-4(fp)
UBaseType_t uxReturn;

	configASSERT( xQueue );

	taskENTER_CRITICAL();
  801898:	08038ac0 	call	8038ac <vTaskEnterCritical>
	{
		uxReturn = ( ( Queue_t * ) xQueue )->uxMessagesWaiting;
  80189c:	e0bfff17 	ldw	r2,-4(fp)
  8018a0:	10800e17 	ldw	r2,56(r2)
  8018a4:	e0bffe15 	stw	r2,-8(fp)
	}
	taskEXIT_CRITICAL();
  8018a8:	08039000 	call	803900 <vTaskExitCritical>

	return uxReturn;
  8018ac:	e0bffe17 	ldw	r2,-8(fp)
} /*lint !e818 Pointer cannot be declared const as xQueue is a typedef not pointer. */
  8018b0:	e037883a 	mov	sp,fp
  8018b4:	dfc00117 	ldw	ra,4(sp)
  8018b8:	df000017 	ldw	fp,0(sp)
  8018bc:	dec00204 	addi	sp,sp,8
  8018c0:	f800283a 	ret

008018c4 <uxQueueSpacesAvailable>:
/*-----------------------------------------------------------*/

UBaseType_t uxQueueSpacesAvailable( const QueueHandle_t xQueue )
{
  8018c4:	defffb04 	addi	sp,sp,-20
  8018c8:	dfc00415 	stw	ra,16(sp)
  8018cc:	df000315 	stw	fp,12(sp)
  8018d0:	df000304 	addi	fp,sp,12
  8018d4:	e13fff15 	stw	r4,-4(fp)
UBaseType_t uxReturn;
Queue_t *pxQueue;

	pxQueue = ( Queue_t * ) xQueue;
  8018d8:	e0bfff17 	ldw	r2,-4(fp)
  8018dc:	e0bffd15 	stw	r2,-12(fp)
	configASSERT( pxQueue );

	taskENTER_CRITICAL();
  8018e0:	08038ac0 	call	8038ac <vTaskEnterCritical>
	{
		uxReturn = pxQueue->uxLength - pxQueue->uxMessagesWaiting;
  8018e4:	e0bffd17 	ldw	r2,-12(fp)
  8018e8:	10c00f17 	ldw	r3,60(r2)
  8018ec:	e0bffd17 	ldw	r2,-12(fp)
  8018f0:	10800e17 	ldw	r2,56(r2)
  8018f4:	1885c83a 	sub	r2,r3,r2
  8018f8:	e0bffe15 	stw	r2,-8(fp)
	}
	taskEXIT_CRITICAL();
  8018fc:	08039000 	call	803900 <vTaskExitCritical>

	return uxReturn;
  801900:	e0bffe17 	ldw	r2,-8(fp)
} /*lint !e818 Pointer cannot be declared const as xQueue is a typedef not pointer. */
  801904:	e037883a 	mov	sp,fp
  801908:	dfc00117 	ldw	ra,4(sp)
  80190c:	df000017 	ldw	fp,0(sp)
  801910:	dec00204 	addi	sp,sp,8
  801914:	f800283a 	ret

00801918 <uxQueueMessagesWaitingFromISR>:
/*-----------------------------------------------------------*/

UBaseType_t uxQueueMessagesWaitingFromISR( const QueueHandle_t xQueue )
{
  801918:	defffd04 	addi	sp,sp,-12
  80191c:	df000215 	stw	fp,8(sp)
  801920:	df000204 	addi	fp,sp,8
  801924:	e13fff15 	stw	r4,-4(fp)
UBaseType_t uxReturn;

	configASSERT( xQueue );

	uxReturn = ( ( Queue_t * ) xQueue )->uxMessagesWaiting;
  801928:	e0bfff17 	ldw	r2,-4(fp)
  80192c:	10800e17 	ldw	r2,56(r2)
  801930:	e0bffe15 	stw	r2,-8(fp)

	return uxReturn;
  801934:	e0bffe17 	ldw	r2,-8(fp)
} /*lint !e818 Pointer cannot be declared const as xQueue is a typedef not pointer. */
  801938:	e037883a 	mov	sp,fp
  80193c:	df000017 	ldw	fp,0(sp)
  801940:	dec00104 	addi	sp,sp,4
  801944:	f800283a 	ret

00801948 <vQueueDelete>:
/*-----------------------------------------------------------*/

void vQueueDelete( QueueHandle_t xQueue )
{
  801948:	defffc04 	addi	sp,sp,-16
  80194c:	dfc00315 	stw	ra,12(sp)
  801950:	df000215 	stw	fp,8(sp)
  801954:	df000204 	addi	fp,sp,8
  801958:	e13fff15 	stw	r4,-4(fp)
Queue_t * const pxQueue = ( Queue_t * ) xQueue;
  80195c:	e0bfff17 	ldw	r2,-4(fp)
  801960:	e0bffe15 	stw	r2,-8(fp)

	#if( ( configSUPPORT_DYNAMIC_ALLOCATION == 1 ) && ( configSUPPORT_STATIC_ALLOCATION == 0 ) )
	{
		/* The queue can only have been allocated dynamically - free it
		again. */
		vPortFree( pxQueue );
  801964:	e13ffe17 	ldw	r4,-8(fp)
  801968:	0800b680 	call	800b68 <vPortFree>
		/* The queue must have been statically allocated, so is not going to be
		deleted.  Avoid compiler warnings about the unused parameter. */
		( void ) pxQueue;
	}
	#endif /* configSUPPORT_DYNAMIC_ALLOCATION */
}
  80196c:	0001883a 	nop
  801970:	e037883a 	mov	sp,fp
  801974:	dfc00117 	ldw	ra,4(sp)
  801978:	df000017 	ldw	fp,0(sp)
  80197c:	dec00204 	addi	sp,sp,8
  801980:	f800283a 	ret

00801984 <prvCopyDataToQueue>:

#endif /* configUSE_TRACE_FACILITY */
/*-----------------------------------------------------------*/

static BaseType_t prvCopyDataToQueue( Queue_t * const pxQueue, const void *pvItemToQueue, const BaseType_t xPosition )
{
  801984:	defff904 	addi	sp,sp,-28
  801988:	dfc00615 	stw	ra,24(sp)
  80198c:	df000515 	stw	fp,20(sp)
  801990:	df000504 	addi	fp,sp,20
  801994:	e13ffd15 	stw	r4,-12(fp)
  801998:	e17ffe15 	stw	r5,-8(fp)
  80199c:	e1bfff15 	stw	r6,-4(fp)
BaseType_t xReturn = pdFALSE;
  8019a0:	e03ffb15 	stw	zero,-20(fp)
UBaseType_t uxMessagesWaiting;

	/* This function is called from a critical section. */

	uxMessagesWaiting = pxQueue->uxMessagesWaiting;
  8019a4:	e0bffd17 	ldw	r2,-12(fp)
  8019a8:	10800e17 	ldw	r2,56(r2)
  8019ac:	e0bffc15 	stw	r2,-16(fp)

	if( pxQueue->uxItemSize == ( UBaseType_t ) 0 )
  8019b0:	e0bffd17 	ldw	r2,-12(fp)
  8019b4:	10801017 	ldw	r2,64(r2)
  8019b8:	10000b1e 	bne	r2,zero,8019e8 <prvCopyDataToQueue+0x64>
	{
		#if ( configUSE_MUTEXES == 1 )
		{
			if( pxQueue->uxQueueType == queueQUEUE_IS_MUTEX )
  8019bc:	e0bffd17 	ldw	r2,-12(fp)
  8019c0:	10800017 	ldw	r2,0(r2)
  8019c4:	1000481e 	bne	r2,zero,801ae8 <prvCopyDataToQueue+0x164>
			{
				/* The mutex is no longer being held. */
				xReturn = xTaskPriorityDisinherit( ( void * ) pxQueue->pxMutexHolder );
  8019c8:	e0bffd17 	ldw	r2,-12(fp)
  8019cc:	10800117 	ldw	r2,4(r2)
  8019d0:	1009883a 	mov	r4,r2
  8019d4:	08037a40 	call	8037a4 <xTaskPriorityDisinherit>
  8019d8:	e0bffb15 	stw	r2,-20(fp)
				pxQueue->pxMutexHolder = NULL;
  8019dc:	e0bffd17 	ldw	r2,-12(fp)
  8019e0:	10000115 	stw	zero,4(r2)
  8019e4:	00004006 	br	801ae8 <prvCopyDataToQueue+0x164>
				mtCOVERAGE_TEST_MARKER();
			}
		}
		#endif /* configUSE_MUTEXES */
	}
	else if( xPosition == queueSEND_TO_BACK )
  8019e8:	e0bfff17 	ldw	r2,-4(fp)
  8019ec:	1000191e 	bne	r2,zero,801a54 <prvCopyDataToQueue+0xd0>
	{
		( void ) memcpy( ( void * ) pxQueue->pcWriteTo, pvItemToQueue, ( size_t ) pxQueue->uxItemSize ); /*lint !e961 !e418 MISRA exception as the casts are only redundant for some ports, plus previous logic ensures a null pointer can only be passed to memcpy() if the copy size is 0. */
  8019f0:	e0bffd17 	ldw	r2,-12(fp)
  8019f4:	10c00217 	ldw	r3,8(r2)
  8019f8:	e0bffd17 	ldw	r2,-12(fp)
  8019fc:	10801017 	ldw	r2,64(r2)
  801a00:	100d883a 	mov	r6,r2
  801a04:	e17ffe17 	ldw	r5,-8(fp)
  801a08:	1809883a 	mov	r4,r3
  801a0c:	080f4440 	call	80f444 <memcpy>
		pxQueue->pcWriteTo += pxQueue->uxItemSize;
  801a10:	e0bffd17 	ldw	r2,-12(fp)
  801a14:	10c00217 	ldw	r3,8(r2)
  801a18:	e0bffd17 	ldw	r2,-12(fp)
  801a1c:	10801017 	ldw	r2,64(r2)
  801a20:	1887883a 	add	r3,r3,r2
  801a24:	e0bffd17 	ldw	r2,-12(fp)
  801a28:	10c00215 	stw	r3,8(r2)
		if( pxQueue->pcWriteTo >= pxQueue->pcTail ) /*lint !e946 MISRA exception justified as comparison of pointers is the cleanest solution. */
  801a2c:	e0bffd17 	ldw	r2,-12(fp)
  801a30:	10c00217 	ldw	r3,8(r2)
  801a34:	e0bffd17 	ldw	r2,-12(fp)
  801a38:	10800117 	ldw	r2,4(r2)
  801a3c:	18802a36 	bltu	r3,r2,801ae8 <prvCopyDataToQueue+0x164>
		{
			pxQueue->pcWriteTo = pxQueue->pcHead;
  801a40:	e0bffd17 	ldw	r2,-12(fp)
  801a44:	10c00017 	ldw	r3,0(r2)
  801a48:	e0bffd17 	ldw	r2,-12(fp)
  801a4c:	10c00215 	stw	r3,8(r2)
  801a50:	00002506 	br	801ae8 <prvCopyDataToQueue+0x164>
			mtCOVERAGE_TEST_MARKER();
		}
	}
	else
	{
		( void ) memcpy( ( void * ) pxQueue->u.pcReadFrom, pvItemToQueue, ( size_t ) pxQueue->uxItemSize ); /*lint !e961 MISRA exception as the casts are only redundant for some ports. */
  801a54:	e0bffd17 	ldw	r2,-12(fp)
  801a58:	10c00317 	ldw	r3,12(r2)
  801a5c:	e0bffd17 	ldw	r2,-12(fp)
  801a60:	10801017 	ldw	r2,64(r2)
  801a64:	100d883a 	mov	r6,r2
  801a68:	e17ffe17 	ldw	r5,-8(fp)
  801a6c:	1809883a 	mov	r4,r3
  801a70:	080f4440 	call	80f444 <memcpy>
		pxQueue->u.pcReadFrom -= pxQueue->uxItemSize;
  801a74:	e0bffd17 	ldw	r2,-12(fp)
  801a78:	10c00317 	ldw	r3,12(r2)
  801a7c:	e0bffd17 	ldw	r2,-12(fp)
  801a80:	10801017 	ldw	r2,64(r2)
  801a84:	0085c83a 	sub	r2,zero,r2
  801a88:	1887883a 	add	r3,r3,r2
  801a8c:	e0bffd17 	ldw	r2,-12(fp)
  801a90:	10c00315 	stw	r3,12(r2)
		if( pxQueue->u.pcReadFrom < pxQueue->pcHead ) /*lint !e946 MISRA exception justified as comparison of pointers is the cleanest solution. */
  801a94:	e0bffd17 	ldw	r2,-12(fp)
  801a98:	10c00317 	ldw	r3,12(r2)
  801a9c:	e0bffd17 	ldw	r2,-12(fp)
  801aa0:	10800017 	ldw	r2,0(r2)
  801aa4:	1880082e 	bgeu	r3,r2,801ac8 <prvCopyDataToQueue+0x144>
		{
			pxQueue->u.pcReadFrom = ( pxQueue->pcTail - pxQueue->uxItemSize );
  801aa8:	e0bffd17 	ldw	r2,-12(fp)
  801aac:	10c00117 	ldw	r3,4(r2)
  801ab0:	e0bffd17 	ldw	r2,-12(fp)
  801ab4:	10801017 	ldw	r2,64(r2)
  801ab8:	0085c83a 	sub	r2,zero,r2
  801abc:	1887883a 	add	r3,r3,r2
  801ac0:	e0bffd17 	ldw	r2,-12(fp)
  801ac4:	10c00315 	stw	r3,12(r2)
		else
		{
			mtCOVERAGE_TEST_MARKER();
		}

		if( xPosition == queueOVERWRITE )
  801ac8:	e0bfff17 	ldw	r2,-4(fp)
  801acc:	10800098 	cmpnei	r2,r2,2
  801ad0:	1000051e 	bne	r2,zero,801ae8 <prvCopyDataToQueue+0x164>
		{
			if( uxMessagesWaiting > ( UBaseType_t ) 0 )
  801ad4:	e0bffc17 	ldw	r2,-16(fp)
  801ad8:	10000326 	beq	r2,zero,801ae8 <prvCopyDataToQueue+0x164>
			{
				/* An item is not being added but overwritten, so subtract
				one from the recorded number of items in the queue so when
				one is added again below the number of recorded items remains
				correct. */
				--uxMessagesWaiting;
  801adc:	e0bffc17 	ldw	r2,-16(fp)
  801ae0:	10bfffc4 	addi	r2,r2,-1
  801ae4:	e0bffc15 	stw	r2,-16(fp)
		{
			mtCOVERAGE_TEST_MARKER();
		}
	}

	pxQueue->uxMessagesWaiting = uxMessagesWaiting + 1;
  801ae8:	e0bffc17 	ldw	r2,-16(fp)
  801aec:	10c00044 	addi	r3,r2,1
  801af0:	e0bffd17 	ldw	r2,-12(fp)
  801af4:	10c00e15 	stw	r3,56(r2)

	return xReturn;
  801af8:	e0bffb17 	ldw	r2,-20(fp)
}
  801afc:	e037883a 	mov	sp,fp
  801b00:	dfc00117 	ldw	ra,4(sp)
  801b04:	df000017 	ldw	fp,0(sp)
  801b08:	dec00204 	addi	sp,sp,8
  801b0c:	f800283a 	ret

00801b10 <prvCopyDataFromQueue>:
/*-----------------------------------------------------------*/

static void prvCopyDataFromQueue( Queue_t * const pxQueue, void * const pvBuffer )
{
  801b10:	defffc04 	addi	sp,sp,-16
  801b14:	dfc00315 	stw	ra,12(sp)
  801b18:	df000215 	stw	fp,8(sp)
  801b1c:	df000204 	addi	fp,sp,8
  801b20:	e13ffe15 	stw	r4,-8(fp)
  801b24:	e17fff15 	stw	r5,-4(fp)
	if( pxQueue->uxItemSize != ( UBaseType_t ) 0 )
  801b28:	e0bffe17 	ldw	r2,-8(fp)
  801b2c:	10801017 	ldw	r2,64(r2)
  801b30:	10001826 	beq	r2,zero,801b94 <prvCopyDataFromQueue+0x84>
	{
		pxQueue->u.pcReadFrom += pxQueue->uxItemSize;
  801b34:	e0bffe17 	ldw	r2,-8(fp)
  801b38:	10c00317 	ldw	r3,12(r2)
  801b3c:	e0bffe17 	ldw	r2,-8(fp)
  801b40:	10801017 	ldw	r2,64(r2)
  801b44:	1887883a 	add	r3,r3,r2
  801b48:	e0bffe17 	ldw	r2,-8(fp)
  801b4c:	10c00315 	stw	r3,12(r2)
		if( pxQueue->u.pcReadFrom >= pxQueue->pcTail ) /*lint !e946 MISRA exception justified as use of the relational operator is the cleanest solutions. */
  801b50:	e0bffe17 	ldw	r2,-8(fp)
  801b54:	10c00317 	ldw	r3,12(r2)
  801b58:	e0bffe17 	ldw	r2,-8(fp)
  801b5c:	10800117 	ldw	r2,4(r2)
  801b60:	18800436 	bltu	r3,r2,801b74 <prvCopyDataFromQueue+0x64>
		{
			pxQueue->u.pcReadFrom = pxQueue->pcHead;
  801b64:	e0bffe17 	ldw	r2,-8(fp)
  801b68:	10c00017 	ldw	r3,0(r2)
  801b6c:	e0bffe17 	ldw	r2,-8(fp)
  801b70:	10c00315 	stw	r3,12(r2)
		}
		else
		{
			mtCOVERAGE_TEST_MARKER();
		}
		( void ) memcpy( ( void * ) pvBuffer, ( void * ) pxQueue->u.pcReadFrom, ( size_t ) pxQueue->uxItemSize ); /*lint !e961 !e418 MISRA exception as the casts are only redundant for some ports.  Also previous logic ensures a null pointer can only be passed to memcpy() when the count is 0. */
  801b74:	e0bffe17 	ldw	r2,-8(fp)
  801b78:	10c00317 	ldw	r3,12(r2)
  801b7c:	e0bffe17 	ldw	r2,-8(fp)
  801b80:	10801017 	ldw	r2,64(r2)
  801b84:	100d883a 	mov	r6,r2
  801b88:	180b883a 	mov	r5,r3
  801b8c:	e13fff17 	ldw	r4,-4(fp)
  801b90:	080f4440 	call	80f444 <memcpy>
	}
}
  801b94:	0001883a 	nop
  801b98:	e037883a 	mov	sp,fp
  801b9c:	dfc00117 	ldw	ra,4(sp)
  801ba0:	df000017 	ldw	fp,0(sp)
  801ba4:	dec00204 	addi	sp,sp,8
  801ba8:	f800283a 	ret

00801bac <prvUnlockQueue>:
/*-----------------------------------------------------------*/

static void prvUnlockQueue( Queue_t * const pxQueue )
{
  801bac:	defffc04 	addi	sp,sp,-16
  801bb0:	dfc00315 	stw	ra,12(sp)
  801bb4:	df000215 	stw	fp,8(sp)
  801bb8:	df000204 	addi	fp,sp,8
  801bbc:	e13fff15 	stw	r4,-4(fp)

	/* The lock counts contains the number of extra data items placed or
	removed from the queue while the queue was locked.  When a queue is
	locked items can be added or removed, but the event lists cannot be
	updated. */
	taskENTER_CRITICAL();
  801bc0:	08038ac0 	call	8038ac <vTaskEnterCritical>
	{
		int8_t cTxLock = pxQueue->cTxLock;
  801bc4:	e0bfff17 	ldw	r2,-4(fp)
  801bc8:	10801143 	ldbu	r2,69(r2)
  801bcc:	e0bffe05 	stb	r2,-8(fp)

		/* See if data was added to the queue while it was locked. */
		while( cTxLock > queueLOCKED_UNMODIFIED )
  801bd0:	00000c06 	br	801c04 <prvUnlockQueue+0x58>
			}
			#else /* configUSE_QUEUE_SETS */
			{
				/* Tasks that are removed from the event list will get added to
				the pending ready list as the scheduler is still suspended. */
				if( listLIST_IS_EMPTY( &( pxQueue->xTasksWaitingToReceive ) ) == pdFALSE )
  801bd4:	e0bfff17 	ldw	r2,-4(fp)
  801bd8:	10800917 	ldw	r2,36(r2)
  801bdc:	10000c26 	beq	r2,zero,801c10 <prvUnlockQueue+0x64>
				{
					if( xTaskRemoveFromEventList( &( pxQueue->xTasksWaitingToReceive ) ) != pdFALSE )
  801be0:	e0bfff17 	ldw	r2,-4(fp)
  801be4:	10800904 	addi	r2,r2,36
  801be8:	1009883a 	mov	r4,r2
  801bec:	080301c0 	call	80301c <xTaskRemoveFromEventList>
  801bf0:	10000126 	beq	r2,zero,801bf8 <prvUnlockQueue+0x4c>
					{
						/* The task waiting has a higher priority so record that
						a context switch is required. */
						vTaskMissedYield();
  801bf4:	08033180 	call	803318 <vTaskMissedYield>
					break;
				}
			}
			#endif /* configUSE_QUEUE_SETS */

			--cTxLock;
  801bf8:	e0bffe03 	ldbu	r2,-8(fp)
  801bfc:	10bfffc4 	addi	r2,r2,-1
  801c00:	e0bffe05 	stb	r2,-8(fp)
	taskENTER_CRITICAL();
	{
		int8_t cTxLock = pxQueue->cTxLock;

		/* See if data was added to the queue while it was locked. */
		while( cTxLock > queueLOCKED_UNMODIFIED )
  801c04:	e0bffe07 	ldb	r2,-8(fp)
  801c08:	00bff216 	blt	zero,r2,801bd4 <__alt_data_end+0xfff01bd4>
  801c0c:	00000106 	br	801c14 <prvUnlockQueue+0x68>
						mtCOVERAGE_TEST_MARKER();
					}
				}
				else
				{
					break;
  801c10:	0001883a 	nop
			#endif /* configUSE_QUEUE_SETS */

			--cTxLock;
		}

		pxQueue->cTxLock = queueUNLOCKED;
  801c14:	e0bfff17 	ldw	r2,-4(fp)
  801c18:	00ffffc4 	movi	r3,-1
  801c1c:	10c01145 	stb	r3,69(r2)
	}
	taskEXIT_CRITICAL();
  801c20:	08039000 	call	803900 <vTaskExitCritical>

	/* Do the same for the Rx lock. */
	taskENTER_CRITICAL();
  801c24:	08038ac0 	call	8038ac <vTaskEnterCritical>
	{
		int8_t cRxLock = pxQueue->cRxLock;
  801c28:	e0bfff17 	ldw	r2,-4(fp)
  801c2c:	10801103 	ldbu	r2,68(r2)
  801c30:	e0bffe45 	stb	r2,-7(fp)

		while( cRxLock > queueLOCKED_UNMODIFIED )
  801c34:	00000c06 	br	801c68 <prvUnlockQueue+0xbc>
		{
			if( listLIST_IS_EMPTY( &( pxQueue->xTasksWaitingToSend ) ) == pdFALSE )
  801c38:	e0bfff17 	ldw	r2,-4(fp)
  801c3c:	10800417 	ldw	r2,16(r2)
  801c40:	10000c26 	beq	r2,zero,801c74 <prvUnlockQueue+0xc8>
			{
				if( xTaskRemoveFromEventList( &( pxQueue->xTasksWaitingToSend ) ) != pdFALSE )
  801c44:	e0bfff17 	ldw	r2,-4(fp)
  801c48:	10800404 	addi	r2,r2,16
  801c4c:	1009883a 	mov	r4,r2
  801c50:	080301c0 	call	80301c <xTaskRemoveFromEventList>
  801c54:	10000126 	beq	r2,zero,801c5c <prvUnlockQueue+0xb0>
				{
					vTaskMissedYield();
  801c58:	08033180 	call	803318 <vTaskMissedYield>
				else
				{
					mtCOVERAGE_TEST_MARKER();
				}

				--cRxLock;
  801c5c:	e0bffe43 	ldbu	r2,-7(fp)
  801c60:	10bfffc4 	addi	r2,r2,-1
  801c64:	e0bffe45 	stb	r2,-7(fp)
	/* Do the same for the Rx lock. */
	taskENTER_CRITICAL();
	{
		int8_t cRxLock = pxQueue->cRxLock;

		while( cRxLock > queueLOCKED_UNMODIFIED )
  801c68:	e0bffe47 	ldb	r2,-7(fp)
  801c6c:	00bff216 	blt	zero,r2,801c38 <__alt_data_end+0xfff01c38>
  801c70:	00000106 	br	801c78 <prvUnlockQueue+0xcc>

				--cRxLock;
			}
			else
			{
				break;
  801c74:	0001883a 	nop
			}
		}

		pxQueue->cRxLock = queueUNLOCKED;
  801c78:	e0bfff17 	ldw	r2,-4(fp)
  801c7c:	00ffffc4 	movi	r3,-1
  801c80:	10c01105 	stb	r3,68(r2)
	}
	taskEXIT_CRITICAL();
  801c84:	08039000 	call	803900 <vTaskExitCritical>
}
  801c88:	0001883a 	nop
  801c8c:	e037883a 	mov	sp,fp
  801c90:	dfc00117 	ldw	ra,4(sp)
  801c94:	df000017 	ldw	fp,0(sp)
  801c98:	dec00204 	addi	sp,sp,8
  801c9c:	f800283a 	ret

00801ca0 <prvIsQueueEmpty>:
/*-----------------------------------------------------------*/

static BaseType_t prvIsQueueEmpty( const Queue_t *pxQueue )
{
  801ca0:	defffc04 	addi	sp,sp,-16
  801ca4:	dfc00315 	stw	ra,12(sp)
  801ca8:	df000215 	stw	fp,8(sp)
  801cac:	df000204 	addi	fp,sp,8
  801cb0:	e13fff15 	stw	r4,-4(fp)
BaseType_t xReturn;

	taskENTER_CRITICAL();
  801cb4:	08038ac0 	call	8038ac <vTaskEnterCritical>
	{
		if( pxQueue->uxMessagesWaiting == ( UBaseType_t )  0 )
  801cb8:	e0bfff17 	ldw	r2,-4(fp)
  801cbc:	10800e17 	ldw	r2,56(r2)
  801cc0:	1000031e 	bne	r2,zero,801cd0 <prvIsQueueEmpty+0x30>
		{
			xReturn = pdTRUE;
  801cc4:	00800044 	movi	r2,1
  801cc8:	e0bffe15 	stw	r2,-8(fp)
  801ccc:	00000106 	br	801cd4 <prvIsQueueEmpty+0x34>
		}
		else
		{
			xReturn = pdFALSE;
  801cd0:	e03ffe15 	stw	zero,-8(fp)
		}
	}
	taskEXIT_CRITICAL();
  801cd4:	08039000 	call	803900 <vTaskExitCritical>

	return xReturn;
  801cd8:	e0bffe17 	ldw	r2,-8(fp)
}
  801cdc:	e037883a 	mov	sp,fp
  801ce0:	dfc00117 	ldw	ra,4(sp)
  801ce4:	df000017 	ldw	fp,0(sp)
  801ce8:	dec00204 	addi	sp,sp,8
  801cec:	f800283a 	ret

00801cf0 <xQueueIsQueueEmptyFromISR>:
/*-----------------------------------------------------------*/

BaseType_t xQueueIsQueueEmptyFromISR( const QueueHandle_t xQueue )
{
  801cf0:	defffd04 	addi	sp,sp,-12
  801cf4:	df000215 	stw	fp,8(sp)
  801cf8:	df000204 	addi	fp,sp,8
  801cfc:	e13fff15 	stw	r4,-4(fp)
BaseType_t xReturn;

	configASSERT( xQueue );
	if( ( ( Queue_t * ) xQueue )->uxMessagesWaiting == ( UBaseType_t ) 0 )
  801d00:	e0bfff17 	ldw	r2,-4(fp)
  801d04:	10800e17 	ldw	r2,56(r2)
  801d08:	1000031e 	bne	r2,zero,801d18 <xQueueIsQueueEmptyFromISR+0x28>
	{
		xReturn = pdTRUE;
  801d0c:	00800044 	movi	r2,1
  801d10:	e0bffe15 	stw	r2,-8(fp)
  801d14:	00000106 	br	801d1c <xQueueIsQueueEmptyFromISR+0x2c>
	}
	else
	{
		xReturn = pdFALSE;
  801d18:	e03ffe15 	stw	zero,-8(fp)
	}

	return xReturn;
  801d1c:	e0bffe17 	ldw	r2,-8(fp)
} /*lint !e818 xQueue could not be pointer to const because it is a typedef. */
  801d20:	e037883a 	mov	sp,fp
  801d24:	df000017 	ldw	fp,0(sp)
  801d28:	dec00104 	addi	sp,sp,4
  801d2c:	f800283a 	ret

00801d30 <prvIsQueueFull>:
/*-----------------------------------------------------------*/

static BaseType_t prvIsQueueFull( const Queue_t *pxQueue )
{
  801d30:	defffc04 	addi	sp,sp,-16
  801d34:	dfc00315 	stw	ra,12(sp)
  801d38:	df000215 	stw	fp,8(sp)
  801d3c:	df000204 	addi	fp,sp,8
  801d40:	e13fff15 	stw	r4,-4(fp)
BaseType_t xReturn;

	taskENTER_CRITICAL();
  801d44:	08038ac0 	call	8038ac <vTaskEnterCritical>
	{
		if( pxQueue->uxMessagesWaiting == pxQueue->uxLength )
  801d48:	e0bfff17 	ldw	r2,-4(fp)
  801d4c:	10c00e17 	ldw	r3,56(r2)
  801d50:	e0bfff17 	ldw	r2,-4(fp)
  801d54:	10800f17 	ldw	r2,60(r2)
  801d58:	1880031e 	bne	r3,r2,801d68 <prvIsQueueFull+0x38>
		{
			xReturn = pdTRUE;
  801d5c:	00800044 	movi	r2,1
  801d60:	e0bffe15 	stw	r2,-8(fp)
  801d64:	00000106 	br	801d6c <prvIsQueueFull+0x3c>
		}
		else
		{
			xReturn = pdFALSE;
  801d68:	e03ffe15 	stw	zero,-8(fp)
		}
	}
	taskEXIT_CRITICAL();
  801d6c:	08039000 	call	803900 <vTaskExitCritical>

	return xReturn;
  801d70:	e0bffe17 	ldw	r2,-8(fp)
}
  801d74:	e037883a 	mov	sp,fp
  801d78:	dfc00117 	ldw	ra,4(sp)
  801d7c:	df000017 	ldw	fp,0(sp)
  801d80:	dec00204 	addi	sp,sp,8
  801d84:	f800283a 	ret

00801d88 <xQueueIsQueueFullFromISR>:
/*-----------------------------------------------------------*/

BaseType_t xQueueIsQueueFullFromISR( const QueueHandle_t xQueue )
{
  801d88:	defffd04 	addi	sp,sp,-12
  801d8c:	df000215 	stw	fp,8(sp)
  801d90:	df000204 	addi	fp,sp,8
  801d94:	e13fff15 	stw	r4,-4(fp)
BaseType_t xReturn;

	configASSERT( xQueue );
	if( ( ( Queue_t * ) xQueue )->uxMessagesWaiting == ( ( Queue_t * ) xQueue )->uxLength )
  801d98:	e0bfff17 	ldw	r2,-4(fp)
  801d9c:	10c00e17 	ldw	r3,56(r2)
  801da0:	e0bfff17 	ldw	r2,-4(fp)
  801da4:	10800f17 	ldw	r2,60(r2)
  801da8:	1880031e 	bne	r3,r2,801db8 <xQueueIsQueueFullFromISR+0x30>
	{
		xReturn = pdTRUE;
  801dac:	00800044 	movi	r2,1
  801db0:	e0bffe15 	stw	r2,-8(fp)
  801db4:	00000106 	br	801dbc <xQueueIsQueueFullFromISR+0x34>
	}
	else
	{
		xReturn = pdFALSE;
  801db8:	e03ffe15 	stw	zero,-8(fp)
	}

	return xReturn;
  801dbc:	e0bffe17 	ldw	r2,-8(fp)
} /*lint !e818 xQueue could not be pointer to const because it is a typedef. */
  801dc0:	e037883a 	mov	sp,fp
  801dc4:	df000017 	ldw	fp,0(sp)
  801dc8:	dec00104 	addi	sp,sp,4
  801dcc:	f800283a 	ret

00801dd0 <xTaskCreate>:
							const char * const pcName,
							const uint16_t usStackDepth,
							void * const pvParameters,
							UBaseType_t uxPriority,
							TaskHandle_t * const pxCreatedTask ) /*lint !e971 Unqualified char types are allowed for strings and single characters only. */
	{
  801dd0:	defff304 	addi	sp,sp,-52
  801dd4:	dfc00c15 	stw	ra,48(sp)
  801dd8:	df000b15 	stw	fp,44(sp)
  801ddc:	df000b04 	addi	fp,sp,44
  801de0:	e13ffc15 	stw	r4,-16(fp)
  801de4:	e17ffd15 	stw	r5,-12(fp)
  801de8:	3005883a 	mov	r2,r6
  801dec:	e1ffff15 	stw	r7,-4(fp)
  801df0:	e0bffe0d 	sth	r2,-8(fp)
		#else /* portSTACK_GROWTH */
		{
		StackType_t *pxStack;

			/* Allocate space for the stack used by the task being created. */
			pxStack = ( StackType_t * ) pvPortMalloc( ( ( ( size_t ) usStackDepth ) * sizeof( StackType_t ) ) ); /*lint !e961 MISRA exception as the casts are only redundant for some ports. */
  801df4:	e0bffe0b 	ldhu	r2,-8(fp)
  801df8:	1085883a 	add	r2,r2,r2
  801dfc:	1085883a 	add	r2,r2,r2
  801e00:	1009883a 	mov	r4,r2
  801e04:	08009980 	call	800998 <pvPortMalloc>
  801e08:	e0bffb15 	stw	r2,-20(fp)

			if( pxStack != NULL )
  801e0c:	e0bffb17 	ldw	r2,-20(fp)
  801e10:	10000c26 	beq	r2,zero,801e44 <xTaskCreate+0x74>
			{
				/* Allocate space for the TCB. */
				pxNewTCB = ( TCB_t * ) pvPortMalloc( sizeof( TCB_t ) ); /*lint !e961 MISRA exception as the casts are only redundant for some paths. */
  801e14:	01001404 	movi	r4,80
  801e18:	08009980 	call	800998 <pvPortMalloc>
  801e1c:	e0bff915 	stw	r2,-28(fp)

				if( pxNewTCB != NULL )
  801e20:	e0bff917 	ldw	r2,-28(fp)
  801e24:	10000426 	beq	r2,zero,801e38 <xTaskCreate+0x68>
				{
					/* Store the stack location in the TCB. */
					pxNewTCB->pxStack = pxStack;
  801e28:	e0bff917 	ldw	r2,-28(fp)
  801e2c:	e0fffb17 	ldw	r3,-20(fp)
  801e30:	10c00c15 	stw	r3,48(r2)
  801e34:	00000406 	br	801e48 <xTaskCreate+0x78>
				}
				else
				{
					/* The stack cannot be used as the TCB was not created.  Free
					it again. */
					vPortFree( pxStack );
  801e38:	e13ffb17 	ldw	r4,-20(fp)
  801e3c:	0800b680 	call	800b68 <vPortFree>
  801e40:	00000106 	br	801e48 <xTaskCreate+0x78>
				}
			}
			else
			{
				pxNewTCB = NULL;
  801e44:	e03ff915 	stw	zero,-28(fp)
			}
		}
		#endif /* portSTACK_GROWTH */

		if( pxNewTCB != NULL )
  801e48:	e0bff917 	ldw	r2,-28(fp)
  801e4c:	10001226 	beq	r2,zero,801e98 <xTaskCreate+0xc8>
				task was created dynamically in case it is later deleted. */
				pxNewTCB->ucStaticallyAllocated = tskDYNAMICALLY_ALLOCATED_STACK_AND_TCB;
			}
			#endif /* configSUPPORT_STATIC_ALLOCATION */

			prvInitialiseNewTask( pxTaskCode, pcName, ( uint32_t ) usStackDepth, pvParameters, uxPriority, pxCreatedTask, pxNewTCB, NULL );
  801e50:	e0fffe0b 	ldhu	r3,-8(fp)
  801e54:	d8000315 	stw	zero,12(sp)
  801e58:	e0bff917 	ldw	r2,-28(fp)
  801e5c:	d8800215 	stw	r2,8(sp)
  801e60:	e0800317 	ldw	r2,12(fp)
  801e64:	d8800115 	stw	r2,4(sp)
  801e68:	e0800217 	ldw	r2,8(fp)
  801e6c:	d8800015 	stw	r2,0(sp)
  801e70:	e1ffff17 	ldw	r7,-4(fp)
  801e74:	180d883a 	mov	r6,r3
  801e78:	e17ffd17 	ldw	r5,-12(fp)
  801e7c:	e13ffc17 	ldw	r4,-16(fp)
  801e80:	0801eb80 	call	801eb8 <prvInitialiseNewTask>
			prvAddNewTaskToReadyList( pxNewTCB );
  801e84:	e13ff917 	ldw	r4,-28(fp)
  801e88:	08020880 	call	802088 <prvAddNewTaskToReadyList>
			xReturn = pdPASS;
  801e8c:	00800044 	movi	r2,1
  801e90:	e0bffa15 	stw	r2,-24(fp)
  801e94:	00000206 	br	801ea0 <xTaskCreate+0xd0>
		}
		else
		{
			xReturn = errCOULD_NOT_ALLOCATE_REQUIRED_MEMORY;
  801e98:	00bfffc4 	movi	r2,-1
  801e9c:	e0bffa15 	stw	r2,-24(fp)
		}

		return xReturn;
  801ea0:	e0bffa17 	ldw	r2,-24(fp)
	}
  801ea4:	e037883a 	mov	sp,fp
  801ea8:	dfc00117 	ldw	ra,4(sp)
  801eac:	df000017 	ldw	fp,0(sp)
  801eb0:	dec00204 	addi	sp,sp,8
  801eb4:	f800283a 	ret

00801eb8 <prvInitialiseNewTask>:
									void * const pvParameters,
									UBaseType_t uxPriority,
									TaskHandle_t * const pxCreatedTask,
									TCB_t *pxNewTCB,
									const MemoryRegion_t * const xRegions ) /*lint !e971 Unqualified char types are allowed for strings and single characters only. */
{
  801eb8:	defff804 	addi	sp,sp,-32
  801ebc:	dfc00715 	stw	ra,28(sp)
  801ec0:	df000615 	stw	fp,24(sp)
  801ec4:	df000604 	addi	fp,sp,24
  801ec8:	e13ffc15 	stw	r4,-16(fp)
  801ecc:	e17ffd15 	stw	r5,-12(fp)
  801ed0:	e1bffe15 	stw	r6,-8(fp)
  801ed4:	e1ffff15 	stw	r7,-4(fp)

	/* Avoid dependency on memset() if it is not required. */
	#if( ( configCHECK_FOR_STACK_OVERFLOW > 1 ) || ( configUSE_TRACE_FACILITY == 1 ) || ( INCLUDE_uxTaskGetStackHighWaterMark == 1 ) )
	{
		/* Fill the stack with a known value to assist debugging. */
		( void ) memset( pxNewTCB->pxStack, ( int ) tskSTACK_FILL_BYTE, ( size_t ) ulStackDepth * sizeof( StackType_t ) );
  801ed8:	e0800417 	ldw	r2,16(fp)
  801edc:	10c00c17 	ldw	r3,48(r2)
  801ee0:	e0bffe17 	ldw	r2,-8(fp)
  801ee4:	1085883a 	add	r2,r2,r2
  801ee8:	1085883a 	add	r2,r2,r2
  801eec:	100d883a 	mov	r6,r2
  801ef0:	01402944 	movi	r5,165
  801ef4:	1809883a 	mov	r4,r3
  801ef8:	080f58c0 	call	80f58c <memset>
	grows from high memory to low (as per the 80x86) or vice versa.
	portSTACK_GROWTH is used to make the result positive or negative as required
	by the port. */
	#if( portSTACK_GROWTH < 0 )
	{
		pxTopOfStack = pxNewTCB->pxStack + ( ulStackDepth - ( uint32_t ) 1 );
  801efc:	e0800417 	ldw	r2,16(fp)
  801f00:	10c00c17 	ldw	r3,48(r2)
  801f04:	e13ffe17 	ldw	r4,-8(fp)
  801f08:	00900034 	movhi	r2,16384
  801f0c:	10bfffc4 	addi	r2,r2,-1
  801f10:	2085883a 	add	r2,r4,r2
  801f14:	1085883a 	add	r2,r2,r2
  801f18:	1085883a 	add	r2,r2,r2
  801f1c:	1885883a 	add	r2,r3,r2
  801f20:	e0bffb15 	stw	r2,-20(fp)
		pxTopOfStack = ( StackType_t * ) ( ( ( portPOINTER_SIZE_TYPE ) pxTopOfStack ) & ( ~( ( portPOINTER_SIZE_TYPE ) portBYTE_ALIGNMENT_MASK ) ) ); /*lint !e923 MISRA exception.  Avoiding casts between pointers and integers is not practical.  Size differences accounted for using portPOINTER_SIZE_TYPE type. */
  801f24:	e0fffb17 	ldw	r3,-20(fp)
  801f28:	00bfff04 	movi	r2,-4
  801f2c:	1884703a 	and	r2,r3,r2
  801f30:	e0bffb15 	stw	r2,-20(fp)
		pxNewTCB->pxEndOfStack = pxNewTCB->pxStack + ( ulStackDepth - ( uint32_t ) 1 );
	}
	#endif /* portSTACK_GROWTH */

	/* Store the task name in the TCB. */
	for( x = ( UBaseType_t ) 0; x < ( UBaseType_t ) configMAX_TASK_NAME_LEN; x++ )
  801f34:	e03ffa15 	stw	zero,-24(fp)
  801f38:	00001406 	br	801f8c <prvInitialiseNewTask+0xd4>
	{
		pxNewTCB->pcTaskName[ x ] = pcName[ x ];
  801f3c:	e0fffd17 	ldw	r3,-12(fp)
  801f40:	e0bffa17 	ldw	r2,-24(fp)
  801f44:	1885883a 	add	r2,r3,r2
  801f48:	10c00003 	ldbu	r3,0(r2)
  801f4c:	e1000417 	ldw	r4,16(fp)
  801f50:	e0bffa17 	ldw	r2,-24(fp)
  801f54:	2085883a 	add	r2,r4,r2
  801f58:	10800d04 	addi	r2,r2,52
  801f5c:	10c00005 	stb	r3,0(r2)

		/* Don't copy all configMAX_TASK_NAME_LEN if the string is shorter than
		configMAX_TASK_NAME_LEN characters just in case the memory after the
		string is not accessible (extremely unlikely). */
		if( pcName[ x ] == 0x00 )
  801f60:	e0fffd17 	ldw	r3,-12(fp)
  801f64:	e0bffa17 	ldw	r2,-24(fp)
  801f68:	1885883a 	add	r2,r3,r2
  801f6c:	10800003 	ldbu	r2,0(r2)
  801f70:	10803fcc 	andi	r2,r2,255
  801f74:	1080201c 	xori	r2,r2,128
  801f78:	10bfe004 	addi	r2,r2,-128
  801f7c:	10000726 	beq	r2,zero,801f9c <prvInitialiseNewTask+0xe4>
		pxNewTCB->pxEndOfStack = pxNewTCB->pxStack + ( ulStackDepth - ( uint32_t ) 1 );
	}
	#endif /* portSTACK_GROWTH */

	/* Store the task name in the TCB. */
	for( x = ( UBaseType_t ) 0; x < ( UBaseType_t ) configMAX_TASK_NAME_LEN; x++ )
  801f80:	e0bffa17 	ldw	r2,-24(fp)
  801f84:	10800044 	addi	r2,r2,1
  801f88:	e0bffa15 	stw	r2,-24(fp)
  801f8c:	e0bffa17 	ldw	r2,-24(fp)
  801f90:	10800230 	cmpltui	r2,r2,8
  801f94:	103fe91e 	bne	r2,zero,801f3c <__alt_data_end+0xfff01f3c>
  801f98:	00000106 	br	801fa0 <prvInitialiseNewTask+0xe8>
		/* Don't copy all configMAX_TASK_NAME_LEN if the string is shorter than
		configMAX_TASK_NAME_LEN characters just in case the memory after the
		string is not accessible (extremely unlikely). */
		if( pcName[ x ] == 0x00 )
		{
			break;
  801f9c:	0001883a 	nop
		}
	}

	/* Ensure the name string is terminated in the case that the string length
	was greater or equal to configMAX_TASK_NAME_LEN. */
	pxNewTCB->pcTaskName[ configMAX_TASK_NAME_LEN - 1 ] = '\0';
  801fa0:	e0800417 	ldw	r2,16(fp)
  801fa4:	10000ec5 	stb	zero,59(r2)

	/* This is used as an array index so must ensure it's not too large.  First
	remove the privilege bit if one is present. */
	if( uxPriority >= ( UBaseType_t ) configMAX_PRIORITIES )
  801fa8:	e0800217 	ldw	r2,8(fp)
  801fac:	10800170 	cmpltui	r2,r2,5
  801fb0:	1000021e 	bne	r2,zero,801fbc <prvInitialiseNewTask+0x104>
	{
		uxPriority = ( UBaseType_t ) configMAX_PRIORITIES - ( UBaseType_t ) 1U;
  801fb4:	00800104 	movi	r2,4
  801fb8:	e0800215 	stw	r2,8(fp)
	else
	{
		mtCOVERAGE_TEST_MARKER();
	}

	pxNewTCB->uxPriority = uxPriority;
  801fbc:	e0800417 	ldw	r2,16(fp)
  801fc0:	e0c00217 	ldw	r3,8(fp)
  801fc4:	10c00b15 	stw	r3,44(r2)
	#if ( configUSE_MUTEXES == 1 )
	{
		pxNewTCB->uxBasePriority = uxPriority;
  801fc8:	e0800417 	ldw	r2,16(fp)
  801fcc:	e0c00217 	ldw	r3,8(fp)
  801fd0:	10c01015 	stw	r3,64(r2)
		pxNewTCB->uxMutexesHeld = 0;
  801fd4:	e0800417 	ldw	r2,16(fp)
  801fd8:	10001115 	stw	zero,68(r2)
	}
	#endif /* configUSE_MUTEXES */

	vListInitialiseItem( &( pxNewTCB->xStateListItem ) );
  801fdc:	e0800417 	ldw	r2,16(fp)
  801fe0:	10800104 	addi	r2,r2,4
  801fe4:	1009883a 	mov	r4,r2
  801fe8:	08002f00 	call	8002f0 <vListInitialiseItem>
	vListInitialiseItem( &( pxNewTCB->xEventListItem ) );
  801fec:	e0800417 	ldw	r2,16(fp)
  801ff0:	10800604 	addi	r2,r2,24
  801ff4:	1009883a 	mov	r4,r2
  801ff8:	08002f00 	call	8002f0 <vListInitialiseItem>

	/* Set the pxNewTCB as a link back from the ListItem_t.  This is so we can get
	back to	the containing TCB from a generic item in a list. */
	listSET_LIST_ITEM_OWNER( &( pxNewTCB->xStateListItem ), pxNewTCB );
  801ffc:	e0800417 	ldw	r2,16(fp)
  802000:	e0c00417 	ldw	r3,16(fp)
  802004:	10c00415 	stw	r3,16(r2)

	/* Event lists are always in priority order. */
	listSET_LIST_ITEM_VALUE( &( pxNewTCB->xEventListItem ), ( TickType_t ) configMAX_PRIORITIES - ( TickType_t ) uxPriority ); /*lint !e961 MISRA exception as the casts are only redundant for some ports. */
  802008:	00c00144 	movi	r3,5
  80200c:	e0800217 	ldw	r2,8(fp)
  802010:	1887c83a 	sub	r3,r3,r2
  802014:	e0800417 	ldw	r2,16(fp)
  802018:	10c00615 	stw	r3,24(r2)
	listSET_LIST_ITEM_OWNER( &( pxNewTCB->xEventListItem ), pxNewTCB );
  80201c:	e0800417 	ldw	r2,16(fp)
  802020:	e0c00417 	ldw	r3,16(fp)
  802024:	10c00915 	stw	r3,36(r2)

	#if ( portCRITICAL_NESTING_IN_TCB == 1 )
	{
		pxNewTCB->uxCriticalNesting = ( UBaseType_t ) 0U;
  802028:	e0800417 	ldw	r2,16(fp)
  80202c:	10000f15 	stw	zero,60(r2)
	}
	#endif

	#if ( configUSE_TASK_NOTIFICATIONS == 1 )
	{
		pxNewTCB->ulNotifiedValue = 0;
  802030:	e0800417 	ldw	r2,16(fp)
  802034:	10001215 	stw	zero,72(r2)
		pxNewTCB->ucNotifyState = taskNOT_WAITING_NOTIFICATION;
  802038:	e0800417 	ldw	r2,16(fp)
  80203c:	10001305 	stb	zero,76(r2)
	{
		pxNewTCB->pxTopOfStack = pxPortInitialiseStack( pxTopOfStack, pxTaskCode, pvParameters, xRunPrivileged );
	}
	#else /* portUSING_MPU_WRAPPERS */
	{
		pxNewTCB->pxTopOfStack = pxPortInitialiseStack( pxTopOfStack, pxTaskCode, pvParameters );
  802040:	e1bfff17 	ldw	r6,-4(fp)
  802044:	e17ffc17 	ldw	r5,-16(fp)
  802048:	e13ffb17 	ldw	r4,-20(fp)
  80204c:	08005400 	call	800540 <pxPortInitialiseStack>
  802050:	1007883a 	mov	r3,r2
  802054:	e0800417 	ldw	r2,16(fp)
  802058:	10c00015 	stw	r3,0(r2)
	}
	#endif /* portUSING_MPU_WRAPPERS */

	if( ( void * ) pxCreatedTask != NULL )
  80205c:	e0800317 	ldw	r2,12(fp)
  802060:	10000326 	beq	r2,zero,802070 <prvInitialiseNewTask+0x1b8>
	{
		/* Pass the handle out in an anonymous way.  The handle can be used to
		change the created task's priority, delete the created task, etc.*/
		*pxCreatedTask = ( TaskHandle_t ) pxNewTCB;
  802064:	e0800317 	ldw	r2,12(fp)
  802068:	e0c00417 	ldw	r3,16(fp)
  80206c:	10c00015 	stw	r3,0(r2)
	}
	else
	{
		mtCOVERAGE_TEST_MARKER();
	}
}
  802070:	0001883a 	nop
  802074:	e037883a 	mov	sp,fp
  802078:	dfc00117 	ldw	ra,4(sp)
  80207c:	df000017 	ldw	fp,0(sp)
  802080:	dec00204 	addi	sp,sp,8
  802084:	f800283a 	ret

00802088 <prvAddNewTaskToReadyList>:
/*-----------------------------------------------------------*/

static void prvAddNewTaskToReadyList( TCB_t *pxNewTCB )
{
  802088:	defffd04 	addi	sp,sp,-12
  80208c:	dfc00215 	stw	ra,8(sp)
  802090:	df000115 	stw	fp,4(sp)
  802094:	df000104 	addi	fp,sp,4
  802098:	e13fff15 	stw	r4,-4(fp)
	/* Ensure interrupts don't access the task lists while the lists are being
	updated. */
	taskENTER_CRITICAL();
  80209c:	08038ac0 	call	8038ac <vTaskEnterCritical>
	{
		uxCurrentNumberOfTasks++;
  8020a0:	d0a02917 	ldw	r2,-32604(gp)
  8020a4:	10800044 	addi	r2,r2,1
  8020a8:	d0a02915 	stw	r2,-32604(gp)
		if( pxCurrentTCB == NULL )
  8020ac:	d0a02517 	ldw	r2,-32620(gp)
  8020b0:	1000071e 	bne	r2,zero,8020d0 <prvAddNewTaskToReadyList+0x48>
		{
			/* There are no other tasks, or all the other tasks are in
			the suspended state - make this the current task. */
			pxCurrentTCB = pxNewTCB;
  8020b4:	e0bfff17 	ldw	r2,-4(fp)
  8020b8:	d0a02515 	stw	r2,-32620(gp)

			if( uxCurrentNumberOfTasks == ( UBaseType_t ) 1 )
  8020bc:	d0a02917 	ldw	r2,-32604(gp)
  8020c0:	10800058 	cmpnei	r2,r2,1
  8020c4:	10000b1e 	bne	r2,zero,8020f4 <prvAddNewTaskToReadyList+0x6c>
			{
				/* This is the first task to be created so do the preliminary
				initialisation required.  We will not recover if this call
				fails, but we will report the failure. */
				prvInitialiseTaskLists();
  8020c8:	080335c0 	call	80335c <prvInitialiseTaskLists>
  8020cc:	00000906 	br	8020f4 <prvAddNewTaskToReadyList+0x6c>
		else
		{
			/* If the scheduler is not already running, make this task the
			current task if it is the highest priority task to be created
			so far. */
			if( xSchedulerRunning == pdFALSE )
  8020d0:	d0a02c17 	ldw	r2,-32592(gp)
  8020d4:	1000071e 	bne	r2,zero,8020f4 <prvAddNewTaskToReadyList+0x6c>
			{
				if( pxCurrentTCB->uxPriority <= pxNewTCB->uxPriority )
  8020d8:	d0a02517 	ldw	r2,-32620(gp)
  8020dc:	10800b17 	ldw	r2,44(r2)
  8020e0:	e0ffff17 	ldw	r3,-4(fp)
  8020e4:	18c00b17 	ldw	r3,44(r3)
  8020e8:	18800236 	bltu	r3,r2,8020f4 <prvAddNewTaskToReadyList+0x6c>
				{
					pxCurrentTCB = pxNewTCB;
  8020ec:	e0bfff17 	ldw	r2,-4(fp)
  8020f0:	d0a02515 	stw	r2,-32620(gp)
			{
				mtCOVERAGE_TEST_MARKER();
			}
		}

		uxTaskNumber++;
  8020f4:	d0a03017 	ldw	r2,-32576(gp)
  8020f8:	10800044 	addi	r2,r2,1
  8020fc:	d0a03015 	stw	r2,-32576(gp)
			pxNewTCB->uxTCBNumber = uxTaskNumber;
		}
		#endif /* configUSE_TRACE_FACILITY */
		traceTASK_CREATE( pxNewTCB );

		prvAddTaskToReadyList( pxNewTCB );
  802100:	e0bfff17 	ldw	r2,-4(fp)
  802104:	10800b17 	ldw	r2,44(r2)
  802108:	d0e02b17 	ldw	r3,-32596(gp)
  80210c:	1880032e 	bgeu	r3,r2,80211c <prvAddNewTaskToReadyList+0x94>
  802110:	e0bfff17 	ldw	r2,-4(fp)
  802114:	10800b17 	ldw	r2,44(r2)
  802118:	d0a02b15 	stw	r2,-32596(gp)
  80211c:	e0bfff17 	ldw	r2,-4(fp)
  802120:	10800b17 	ldw	r2,44(r2)
  802124:	01400504 	movi	r5,20
  802128:	1009883a 	mov	r4,r2
  80212c:	080b2480 	call	80b248 <__mulsi3>
  802130:	1007883a 	mov	r3,r2
  802134:	008020f4 	movhi	r2,131
  802138:	10ad7c04 	addi	r2,r2,-18960
  80213c:	1887883a 	add	r3,r3,r2
  802140:	e0bfff17 	ldw	r2,-4(fp)
  802144:	10800104 	addi	r2,r2,4
  802148:	100b883a 	mov	r5,r2
  80214c:	1809883a 	mov	r4,r3
  802150:	080031c0 	call	80031c <vListInsertEnd>

		portSETUP_TCB( pxNewTCB );
	}
	taskEXIT_CRITICAL();
  802154:	08039000 	call	803900 <vTaskExitCritical>

	if( xSchedulerRunning != pdFALSE )
  802158:	d0a02c17 	ldw	r2,-32592(gp)
  80215c:	10000626 	beq	r2,zero,802178 <prvAddNewTaskToReadyList+0xf0>
	{
		/* If the created task is of a higher priority than the current task
		then it should run now. */
		if( pxCurrentTCB->uxPriority < pxNewTCB->uxPriority )
  802160:	d0a02517 	ldw	r2,-32620(gp)
  802164:	10c00b17 	ldw	r3,44(r2)
  802168:	e0bfff17 	ldw	r2,-4(fp)
  80216c:	10800b17 	ldw	r2,44(r2)
  802170:	1880012e 	bgeu	r3,r2,802178 <prvAddNewTaskToReadyList+0xf0>
		{
			taskYIELD_IF_USING_PREEMPTION();
  802174:	003b683a 	trap	0
	}
	else
	{
		mtCOVERAGE_TEST_MARKER();
	}
}
  802178:	0001883a 	nop
  80217c:	e037883a 	mov	sp,fp
  802180:	dfc00117 	ldw	ra,4(sp)
  802184:	df000017 	ldw	fp,0(sp)
  802188:	dec00204 	addi	sp,sp,8
  80218c:	f800283a 	ret

00802190 <vTaskDelete>:
/*-----------------------------------------------------------*/

#if ( INCLUDE_vTaskDelete == 1 )

	void vTaskDelete( TaskHandle_t xTaskToDelete )
	{
  802190:	defffc04 	addi	sp,sp,-16
  802194:	dfc00315 	stw	ra,12(sp)
  802198:	df000215 	stw	fp,8(sp)
  80219c:	df000204 	addi	fp,sp,8
  8021a0:	e13fff15 	stw	r4,-4(fp)
	TCB_t *pxTCB;

		taskENTER_CRITICAL();
  8021a4:	08038ac0 	call	8038ac <vTaskEnterCritical>
		{
			/* If null is passed in here then it is the calling task that is
			being deleted. */
			pxTCB = prvGetTCBFromHandle( xTaskToDelete );
  8021a8:	e0bfff17 	ldw	r2,-4(fp)
  8021ac:	1000021e 	bne	r2,zero,8021b8 <vTaskDelete+0x28>
  8021b0:	d0a02517 	ldw	r2,-32620(gp)
  8021b4:	00000106 	br	8021bc <vTaskDelete+0x2c>
  8021b8:	e0bfff17 	ldw	r2,-4(fp)
  8021bc:	e0bffe15 	stw	r2,-8(fp)

			/* Remove task from the ready list. */
			if( uxListRemove( &( pxTCB->xStateListItem ) ) == ( UBaseType_t ) 0 )
  8021c0:	e0bffe17 	ldw	r2,-8(fp)
  8021c4:	10800104 	addi	r2,r2,4
  8021c8:	1009883a 	mov	r4,r2
  8021cc:	08004800 	call	800480 <uxListRemove>
			{
				mtCOVERAGE_TEST_MARKER();
			}

			/* Is the task waiting on an event also? */
			if( listLIST_ITEM_CONTAINER( &( pxTCB->xEventListItem ) ) != NULL )
  8021d0:	e0bffe17 	ldw	r2,-8(fp)
  8021d4:	10800a17 	ldw	r2,40(r2)
  8021d8:	10000426 	beq	r2,zero,8021ec <vTaskDelete+0x5c>
			{
				( void ) uxListRemove( &( pxTCB->xEventListItem ) );
  8021dc:	e0bffe17 	ldw	r2,-8(fp)
  8021e0:	10800604 	addi	r2,r2,24
  8021e4:	1009883a 	mov	r4,r2
  8021e8:	08004800 	call	800480 <uxListRemove>

			/* Increment the uxTaskNumber also so kernel aware debuggers can
			detect that the task lists need re-generating.  This is done before
			portPRE_TASK_DELETE_HOOK() as in the Windows port that macro will
			not return. */
			uxTaskNumber++;
  8021ec:	d0a03017 	ldw	r2,-32576(gp)
  8021f0:	10800044 	addi	r2,r2,1
  8021f4:	d0a03015 	stw	r2,-32576(gp)

			if( pxTCB == pxCurrentTCB )
  8021f8:	d0a02517 	ldw	r2,-32620(gp)
  8021fc:	e0fffe17 	ldw	r3,-8(fp)
  802200:	18800a1e 	bne	r3,r2,80222c <vTaskDelete+0x9c>
				/* A task is deleting itself.  This cannot complete within the
				task itself, as a context switch to another task is required.
				Place the task in the termination list.  The idle task will
				check the termination list and free up any memory allocated by
				the scheduler for the TCB and stack of the deleted task. */
				vListInsertEnd( &xTasksWaitingTermination, &( pxTCB->xStateListItem ) );
  802204:	e0bffe17 	ldw	r2,-8(fp)
  802208:	10800104 	addi	r2,r2,4
  80220c:	100b883a 	mov	r5,r2
  802210:	010020f4 	movhi	r4,131
  802214:	212da404 	addi	r4,r4,-18800
  802218:	080031c0 	call	80031c <vListInsertEnd>

				/* Increment the ucTasksDeleted variable so the idle task knows
				there is a task that has been deleted and that it should therefore
				check the xTasksWaitingTermination list. */
				++uxDeletedTasksWaitingCleanUp;
  80221c:	d0a02817 	ldw	r2,-32608(gp)
  802220:	10800044 	addi	r2,r2,1
  802224:	d0a02815 	stw	r2,-32608(gp)
  802228:	00000606 	br	802244 <vTaskDelete+0xb4>
				required. */
				portPRE_TASK_DELETE_HOOK( pxTCB, &xYieldPending );
			}
			else
			{
				--uxCurrentNumberOfTasks;
  80222c:	d0a02917 	ldw	r2,-32604(gp)
  802230:	10bfffc4 	addi	r2,r2,-1
  802234:	d0a02915 	stw	r2,-32604(gp)
				prvDeleteTCB( pxTCB );
  802238:	e13ffe17 	ldw	r4,-8(fp)
  80223c:	08035880 	call	803588 <prvDeleteTCB>

				/* Reset the next expected unblock time in case it referred to
				the task that has just been deleted. */
				prvResetNextTaskUnblockTime();
  802240:	08035cc0 	call	8035cc <prvResetNextTaskUnblockTime>
			}

			traceTASK_DELETE( pxTCB );
		}
		taskEXIT_CRITICAL();
  802244:	08039000 	call	803900 <vTaskExitCritical>

		/* Force a reschedule if it is the currently running task that has just
		been deleted. */
		if( xSchedulerRunning != pdFALSE )
  802248:	d0a02c17 	ldw	r2,-32592(gp)
  80224c:	10000426 	beq	r2,zero,802260 <vTaskDelete+0xd0>
		{
			if( pxTCB == pxCurrentTCB )
  802250:	d0a02517 	ldw	r2,-32620(gp)
  802254:	e0fffe17 	ldw	r3,-8(fp)
  802258:	1880011e 	bne	r3,r2,802260 <vTaskDelete+0xd0>
			{
				configASSERT( uxSchedulerSuspended == 0 );
				portYIELD_WITHIN_API();
  80225c:	003b683a 	trap	0
			else
			{
				mtCOVERAGE_TEST_MARKER();
			}
		}
	}
  802260:	0001883a 	nop
  802264:	e037883a 	mov	sp,fp
  802268:	dfc00117 	ldw	ra,4(sp)
  80226c:	df000017 	ldw	fp,0(sp)
  802270:	dec00204 	addi	sp,sp,8
  802274:	f800283a 	ret

00802278 <vTaskDelayUntil>:
/*-----------------------------------------------------------*/

#if ( INCLUDE_vTaskDelayUntil == 1 )

	void vTaskDelayUntil( TickType_t * const pxPreviousWakeTime, const TickType_t xTimeIncrement )
	{
  802278:	defff804 	addi	sp,sp,-32
  80227c:	dfc00715 	stw	ra,28(sp)
  802280:	df000615 	stw	fp,24(sp)
  802284:	df000604 	addi	fp,sp,24
  802288:	e13ffe15 	stw	r4,-8(fp)
  80228c:	e17fff15 	stw	r5,-4(fp)
	TickType_t xTimeToWake;
	BaseType_t xAlreadyYielded, xShouldDelay = pdFALSE;
  802290:	e03ffa15 	stw	zero,-24(fp)

		configASSERT( pxPreviousWakeTime );
		configASSERT( ( xTimeIncrement > 0U ) );
		configASSERT( uxSchedulerSuspended == 0 );

		vTaskSuspendAll();
  802294:	0802a4c0 	call	802a4c <vTaskSuspendAll>
		{
			/* Minor optimisation.  The tick count cannot change in this
			block. */
			const TickType_t xConstTickCount = xTickCount;
  802298:	d0a02a17 	ldw	r2,-32600(gp)
  80229c:	e0bffb15 	stw	r2,-20(fp)

			/* Generate the tick time at which the task wants to wake. */
			xTimeToWake = *pxPreviousWakeTime + xTimeIncrement;
  8022a0:	e0bffe17 	ldw	r2,-8(fp)
  8022a4:	10c00017 	ldw	r3,0(r2)
  8022a8:	e0bfff17 	ldw	r2,-4(fp)
  8022ac:	1885883a 	add	r2,r3,r2
  8022b0:	e0bffc15 	stw	r2,-16(fp)

			if( xConstTickCount < *pxPreviousWakeTime )
  8022b4:	e0bffe17 	ldw	r2,-8(fp)
  8022b8:	10800017 	ldw	r2,0(r2)
  8022bc:	e0fffb17 	ldw	r3,-20(fp)
  8022c0:	18800a2e 	bgeu	r3,r2,8022ec <vTaskDelayUntil+0x74>
				/* The tick count has overflowed since this function was
				lasted called.  In this case the only time we should ever
				actually delay is if the wake time has also	overflowed,
				and the wake time is greater than the tick time.  When this
				is the case it is as if neither time had overflowed. */
				if( ( xTimeToWake < *pxPreviousWakeTime ) && ( xTimeToWake > xConstTickCount ) )
  8022c4:	e0bffe17 	ldw	r2,-8(fp)
  8022c8:	10800017 	ldw	r2,0(r2)
  8022cc:	e0fffc17 	ldw	r3,-16(fp)
  8022d0:	18800f2e 	bgeu	r3,r2,802310 <vTaskDelayUntil+0x98>
  8022d4:	e0bffc17 	ldw	r2,-16(fp)
  8022d8:	e0fffb17 	ldw	r3,-20(fp)
  8022dc:	18800c2e 	bgeu	r3,r2,802310 <vTaskDelayUntil+0x98>
				{
					xShouldDelay = pdTRUE;
  8022e0:	00800044 	movi	r2,1
  8022e4:	e0bffa15 	stw	r2,-24(fp)
  8022e8:	00000906 	br	802310 <vTaskDelayUntil+0x98>
			else
			{
				/* The tick time has not overflowed.  In this case we will
				delay if either the wake time has overflowed, and/or the
				tick time is less than the wake time. */
				if( ( xTimeToWake < *pxPreviousWakeTime ) || ( xTimeToWake > xConstTickCount ) )
  8022ec:	e0bffe17 	ldw	r2,-8(fp)
  8022f0:	10800017 	ldw	r2,0(r2)
  8022f4:	e0fffc17 	ldw	r3,-16(fp)
  8022f8:	18800336 	bltu	r3,r2,802308 <vTaskDelayUntil+0x90>
  8022fc:	e0bffc17 	ldw	r2,-16(fp)
  802300:	e0fffb17 	ldw	r3,-20(fp)
  802304:	1880022e 	bgeu	r3,r2,802310 <vTaskDelayUntil+0x98>
				{
					xShouldDelay = pdTRUE;
  802308:	00800044 	movi	r2,1
  80230c:	e0bffa15 	stw	r2,-24(fp)
					mtCOVERAGE_TEST_MARKER();
				}
			}

			/* Update the wake time ready for the next call. */
			*pxPreviousWakeTime = xTimeToWake;
  802310:	e0bffe17 	ldw	r2,-8(fp)
  802314:	e0fffc17 	ldw	r3,-16(fp)
  802318:	10c00015 	stw	r3,0(r2)

			if( xShouldDelay != pdFALSE )
  80231c:	e0bffa17 	ldw	r2,-24(fp)
  802320:	10000626 	beq	r2,zero,80233c <vTaskDelayUntil+0xc4>
			{
				traceTASK_DELAY_UNTIL( xTimeToWake );

				/* prvAddCurrentTaskToDelayedList() needs the block time, not
				the time to wake, so subtract the current tick count. */
				prvAddCurrentTaskToDelayedList( xTimeToWake - xConstTickCount, pdFALSE );
  802324:	e0fffc17 	ldw	r3,-16(fp)
  802328:	e0bffb17 	ldw	r2,-20(fp)
  80232c:	1885c83a 	sub	r2,r3,r2
  802330:	000b883a 	mov	r5,zero
  802334:	1009883a 	mov	r4,r2
  802338:	08040c40 	call	8040c4 <prvAddCurrentTaskToDelayedList>
			else
			{
				mtCOVERAGE_TEST_MARKER();
			}
		}
		xAlreadyYielded = xTaskResumeAll();
  80233c:	0802a780 	call	802a78 <xTaskResumeAll>
  802340:	e0bffd15 	stw	r2,-12(fp)

		/* Force a reschedule if xTaskResumeAll has not already done so, we may
		have put ourselves to sleep. */
		if( xAlreadyYielded == pdFALSE )
  802344:	e0bffd17 	ldw	r2,-12(fp)
  802348:	1000011e 	bne	r2,zero,802350 <vTaskDelayUntil+0xd8>
		{
			portYIELD_WITHIN_API();
  80234c:	003b683a 	trap	0
		}
		else
		{
			mtCOVERAGE_TEST_MARKER();
		}
	}
  802350:	0001883a 	nop
  802354:	e037883a 	mov	sp,fp
  802358:	dfc00117 	ldw	ra,4(sp)
  80235c:	df000017 	ldw	fp,0(sp)
  802360:	dec00204 	addi	sp,sp,8
  802364:	f800283a 	ret

00802368 <vTaskDelay>:
/*-----------------------------------------------------------*/

#if ( INCLUDE_vTaskDelay == 1 )

	void vTaskDelay( const TickType_t xTicksToDelay )
	{
  802368:	defffc04 	addi	sp,sp,-16
  80236c:	dfc00315 	stw	ra,12(sp)
  802370:	df000215 	stw	fp,8(sp)
  802374:	df000204 	addi	fp,sp,8
  802378:	e13fff15 	stw	r4,-4(fp)
	BaseType_t xAlreadyYielded = pdFALSE;
  80237c:	e03ffe15 	stw	zero,-8(fp)

		/* A delay time of zero just forces a reschedule. */
		if( xTicksToDelay > ( TickType_t ) 0U )
  802380:	e0bfff17 	ldw	r2,-4(fp)
  802384:	10000626 	beq	r2,zero,8023a0 <vTaskDelay+0x38>
		{
			configASSERT( uxSchedulerSuspended == 0 );
			vTaskSuspendAll();
  802388:	0802a4c0 	call	802a4c <vTaskSuspendAll>
				list or removed from the blocked list until the scheduler
				is resumed.

				This task cannot be in an event list as it is the currently
				executing task. */
				prvAddCurrentTaskToDelayedList( xTicksToDelay, pdFALSE );
  80238c:	000b883a 	mov	r5,zero
  802390:	e13fff17 	ldw	r4,-4(fp)
  802394:	08040c40 	call	8040c4 <prvAddCurrentTaskToDelayedList>
			}
			xAlreadyYielded = xTaskResumeAll();
  802398:	0802a780 	call	802a78 <xTaskResumeAll>
  80239c:	e0bffe15 	stw	r2,-8(fp)
			mtCOVERAGE_TEST_MARKER();
		}

		/* Force a reschedule if xTaskResumeAll has not already done so, we may
		have put ourselves to sleep. */
		if( xAlreadyYielded == pdFALSE )
  8023a0:	e0bffe17 	ldw	r2,-8(fp)
  8023a4:	1000011e 	bne	r2,zero,8023ac <vTaskDelay+0x44>
		{
			portYIELD_WITHIN_API();
  8023a8:	003b683a 	trap	0
		}
		else
		{
			mtCOVERAGE_TEST_MARKER();
		}
	}
  8023ac:	0001883a 	nop
  8023b0:	e037883a 	mov	sp,fp
  8023b4:	dfc00117 	ldw	ra,4(sp)
  8023b8:	df000017 	ldw	fp,0(sp)
  8023bc:	dec00204 	addi	sp,sp,8
  8023c0:	f800283a 	ret

008023c4 <uxTaskPriorityGet>:
/*-----------------------------------------------------------*/

#if ( INCLUDE_uxTaskPriorityGet == 1 )

	UBaseType_t uxTaskPriorityGet( TaskHandle_t xTask )
	{
  8023c4:	defffb04 	addi	sp,sp,-20
  8023c8:	dfc00415 	stw	ra,16(sp)
  8023cc:	df000315 	stw	fp,12(sp)
  8023d0:	df000304 	addi	fp,sp,12
  8023d4:	e13fff15 	stw	r4,-4(fp)
	TCB_t *pxTCB;
	UBaseType_t uxReturn;

		taskENTER_CRITICAL();
  8023d8:	08038ac0 	call	8038ac <vTaskEnterCritical>
		{
			/* If null is passed in here then it is the priority of the that
			called uxTaskPriorityGet() that is being queried. */
			pxTCB = prvGetTCBFromHandle( xTask );
  8023dc:	e0bfff17 	ldw	r2,-4(fp)
  8023e0:	1000021e 	bne	r2,zero,8023ec <uxTaskPriorityGet+0x28>
  8023e4:	d0a02517 	ldw	r2,-32620(gp)
  8023e8:	00000106 	br	8023f0 <uxTaskPriorityGet+0x2c>
  8023ec:	e0bfff17 	ldw	r2,-4(fp)
  8023f0:	e0bffd15 	stw	r2,-12(fp)
			uxReturn = pxTCB->uxPriority;
  8023f4:	e0bffd17 	ldw	r2,-12(fp)
  8023f8:	10800b17 	ldw	r2,44(r2)
  8023fc:	e0bffe15 	stw	r2,-8(fp)
		}
		taskEXIT_CRITICAL();
  802400:	08039000 	call	803900 <vTaskExitCritical>

		return uxReturn;
  802404:	e0bffe17 	ldw	r2,-8(fp)
	}
  802408:	e037883a 	mov	sp,fp
  80240c:	dfc00117 	ldw	ra,4(sp)
  802410:	df000017 	ldw	fp,0(sp)
  802414:	dec00204 	addi	sp,sp,8
  802418:	f800283a 	ret

0080241c <uxTaskPriorityGetFromISR>:
/*-----------------------------------------------------------*/

#if ( INCLUDE_uxTaskPriorityGet == 1 )

	UBaseType_t uxTaskPriorityGetFromISR( TaskHandle_t xTask )
	{
  80241c:	defffb04 	addi	sp,sp,-20
  802420:	df000415 	stw	fp,16(sp)
  802424:	df000404 	addi	fp,sp,16
  802428:	e13fff15 	stw	r4,-4(fp)
		simple as possible.  More information (albeit Cortex-M specific) is
		provided on the following link:
		http://www.freertos.org/RTOS-Cortex-M3-M4.html */
		portASSERT_IF_INTERRUPT_PRIORITY_INVALID();

		uxSavedInterruptState = portSET_INTERRUPT_MASK_FROM_ISR();
  80242c:	e03ffc15 	stw	zero,-16(fp)
		{
			/* If null is passed in here then it is the priority of the calling
			task that is being queried. */
			pxTCB = prvGetTCBFromHandle( xTask );
  802430:	e0bfff17 	ldw	r2,-4(fp)
  802434:	1000021e 	bne	r2,zero,802440 <uxTaskPriorityGetFromISR+0x24>
  802438:	d0a02517 	ldw	r2,-32620(gp)
  80243c:	00000106 	br	802444 <uxTaskPriorityGetFromISR+0x28>
  802440:	e0bfff17 	ldw	r2,-4(fp)
  802444:	e0bffd15 	stw	r2,-12(fp)
			uxReturn = pxTCB->uxPriority;
  802448:	e0bffd17 	ldw	r2,-12(fp)
  80244c:	10800b17 	ldw	r2,44(r2)
  802450:	e0bffe15 	stw	r2,-8(fp)
		}
		portCLEAR_INTERRUPT_MASK_FROM_ISR( uxSavedInterruptState );

		return uxReturn;
  802454:	e0bffe17 	ldw	r2,-8(fp)
	}
  802458:	e037883a 	mov	sp,fp
  80245c:	df000017 	ldw	fp,0(sp)
  802460:	dec00104 	addi	sp,sp,4
  802464:	f800283a 	ret

00802468 <vTaskPrioritySet>:
/*-----------------------------------------------------------*/

#if ( INCLUDE_vTaskPrioritySet == 1 )

	void vTaskPrioritySet( TaskHandle_t xTask, UBaseType_t uxNewPriority )
	{
  802468:	defff704 	addi	sp,sp,-36
  80246c:	dfc00815 	stw	ra,32(sp)
  802470:	df000715 	stw	fp,28(sp)
  802474:	dc000615 	stw	r16,24(sp)
  802478:	df000704 	addi	fp,sp,28
  80247c:	e13ffd15 	stw	r4,-12(fp)
  802480:	e17ffe15 	stw	r5,-8(fp)
	TCB_t *pxTCB;
	UBaseType_t uxCurrentBasePriority, uxPriorityUsedOnEntry;
	BaseType_t xYieldRequired = pdFALSE;
  802484:	e03ff915 	stw	zero,-28(fp)

		configASSERT( ( uxNewPriority < configMAX_PRIORITIES ) );

		/* Ensure the new priority is valid. */
		if( uxNewPriority >= ( UBaseType_t ) configMAX_PRIORITIES )
  802488:	e0bffe17 	ldw	r2,-8(fp)
  80248c:	10800170 	cmpltui	r2,r2,5
  802490:	1000021e 	bne	r2,zero,80249c <vTaskPrioritySet+0x34>
		{
			uxNewPriority = ( UBaseType_t ) configMAX_PRIORITIES - ( UBaseType_t ) 1U;
  802494:	00800104 	movi	r2,4
  802498:	e0bffe15 	stw	r2,-8(fp)
		else
		{
			mtCOVERAGE_TEST_MARKER();
		}

		taskENTER_CRITICAL();
  80249c:	08038ac0 	call	8038ac <vTaskEnterCritical>
		{
			/* If null is passed in here then it is the priority of the calling
			task that is being changed. */
			pxTCB = prvGetTCBFromHandle( xTask );
  8024a0:	e0bffd17 	ldw	r2,-12(fp)
  8024a4:	1000021e 	bne	r2,zero,8024b0 <vTaskPrioritySet+0x48>
  8024a8:	d0a02517 	ldw	r2,-32620(gp)
  8024ac:	00000106 	br	8024b4 <vTaskPrioritySet+0x4c>
  8024b0:	e0bffd17 	ldw	r2,-12(fp)
  8024b4:	e0bffa15 	stw	r2,-24(fp)

			traceTASK_PRIORITY_SET( pxTCB, uxNewPriority );

			#if ( configUSE_MUTEXES == 1 )
			{
				uxCurrentBasePriority = pxTCB->uxBasePriority;
  8024b8:	e0bffa17 	ldw	r2,-24(fp)
  8024bc:	10801017 	ldw	r2,64(r2)
  8024c0:	e0bffb15 	stw	r2,-20(fp)
			{
				uxCurrentBasePriority = pxTCB->uxPriority;
			}
			#endif

			if( uxCurrentBasePriority != uxNewPriority )
  8024c4:	e0fffb17 	ldw	r3,-20(fp)
  8024c8:	e0bffe17 	ldw	r2,-8(fp)
  8024cc:	18805326 	beq	r3,r2,80261c <vTaskPrioritySet+0x1b4>
			{
				/* The priority change may have readied a task of higher
				priority than the calling task. */
				if( uxNewPriority > uxCurrentBasePriority )
  8024d0:	e0bffe17 	ldw	r2,-8(fp)
  8024d4:	e0fffb17 	ldw	r3,-20(fp)
  8024d8:	18800a2e 	bgeu	r3,r2,802504 <vTaskPrioritySet+0x9c>
				{
					if( pxTCB != pxCurrentTCB )
  8024dc:	d0a02517 	ldw	r2,-32620(gp)
  8024e0:	e0fffa17 	ldw	r3,-24(fp)
  8024e4:	18800c26 	beq	r3,r2,802518 <vTaskPrioritySet+0xb0>
					{
						/* The priority of a task other than the currently
						running task is being raised.  Is the priority being
						raised above that of the running task? */
						if( uxNewPriority >= pxCurrentTCB->uxPriority )
  8024e8:	d0a02517 	ldw	r2,-32620(gp)
  8024ec:	10800b17 	ldw	r2,44(r2)
  8024f0:	e0fffe17 	ldw	r3,-8(fp)
  8024f4:	18800836 	bltu	r3,r2,802518 <vTaskPrioritySet+0xb0>
						{
							xYieldRequired = pdTRUE;
  8024f8:	00800044 	movi	r2,1
  8024fc:	e0bff915 	stw	r2,-28(fp)
  802500:	00000506 	br	802518 <vTaskPrioritySet+0xb0>
						/* The priority of the running task is being raised,
						but the running task must already be the highest
						priority task able to run so no yield is required. */
					}
				}
				else if( pxTCB == pxCurrentTCB )
  802504:	d0a02517 	ldw	r2,-32620(gp)
  802508:	e0fffa17 	ldw	r3,-24(fp)
  80250c:	1880021e 	bne	r3,r2,802518 <vTaskPrioritySet+0xb0>
				{
					/* Setting the priority of the running task down means
					there may now be another task of higher priority that
					is ready to execute. */
					xYieldRequired = pdTRUE;
  802510:	00800044 	movi	r2,1
  802514:	e0bff915 	stw	r2,-28(fp)
				}

				/* Remember the ready list the task might be referenced from
				before its uxPriority member is changed so the
				taskRESET_READY_PRIORITY() macro can function correctly. */
				uxPriorityUsedOnEntry = pxTCB->uxPriority;
  802518:	e0bffa17 	ldw	r2,-24(fp)
  80251c:	10800b17 	ldw	r2,44(r2)
  802520:	e0bffc15 	stw	r2,-16(fp)

				#if ( configUSE_MUTEXES == 1 )
				{
					/* Only change the priority being used if the task is not
					currently using an inherited priority. */
					if( pxTCB->uxBasePriority == pxTCB->uxPriority )
  802524:	e0bffa17 	ldw	r2,-24(fp)
  802528:	10c01017 	ldw	r3,64(r2)
  80252c:	e0bffa17 	ldw	r2,-24(fp)
  802530:	10800b17 	ldw	r2,44(r2)
  802534:	1880031e 	bne	r3,r2,802544 <vTaskPrioritySet+0xdc>
					{
						pxTCB->uxPriority = uxNewPriority;
  802538:	e0bffa17 	ldw	r2,-24(fp)
  80253c:	e0fffe17 	ldw	r3,-8(fp)
  802540:	10c00b15 	stw	r3,44(r2)
					{
						mtCOVERAGE_TEST_MARKER();
					}

					/* The base priority gets set whatever. */
					pxTCB->uxBasePriority = uxNewPriority;
  802544:	e0bffa17 	ldw	r2,-24(fp)
  802548:	e0fffe17 	ldw	r3,-8(fp)
  80254c:	10c01015 	stw	r3,64(r2)
				}
				#endif

				/* Only reset the event list item value if the value is not
				being used for anything else. */
				if( ( listGET_LIST_ITEM_VALUE( &( pxTCB->xEventListItem ) ) & taskEVENT_LIST_ITEM_VALUE_IN_USE ) == 0UL )
  802550:	e0bffa17 	ldw	r2,-24(fp)
  802554:	10800617 	ldw	r2,24(r2)
  802558:	10000516 	blt	r2,zero,802570 <vTaskPrioritySet+0x108>
				{
					listSET_LIST_ITEM_VALUE( &( pxTCB->xEventListItem ), ( ( TickType_t ) configMAX_PRIORITIES - ( TickType_t ) uxNewPriority ) ); /*lint !e961 MISRA exception as the casts are only redundant for some ports. */
  80255c:	00c00144 	movi	r3,5
  802560:	e0bffe17 	ldw	r2,-8(fp)
  802564:	1887c83a 	sub	r3,r3,r2
  802568:	e0bffa17 	ldw	r2,-24(fp)
  80256c:	10c00615 	stw	r3,24(r2)

				/* If the task is in the blocked or suspended list we need do
				nothing more than change it's priority variable. However, if
				the task is in a ready list it needs to be removed and placed
				in the list appropriate to its new priority. */
				if( listIS_CONTAINED_WITHIN( &( pxReadyTasksLists[ uxPriorityUsedOnEntry ] ), &( pxTCB->xStateListItem ) ) != pdFALSE )
  802570:	e0bffa17 	ldw	r2,-24(fp)
  802574:	14000517 	ldw	r16,20(r2)
  802578:	01400504 	movi	r5,20
  80257c:	e13ffc17 	ldw	r4,-16(fp)
  802580:	080b2480 	call	80b248 <__mulsi3>
  802584:	1007883a 	mov	r3,r2
  802588:	008020f4 	movhi	r2,131
  80258c:	10ad7c04 	addi	r2,r2,-18960
  802590:	1885883a 	add	r2,r3,r2
  802594:	8080021e 	bne	r16,r2,8025a0 <vTaskPrioritySet+0x138>
  802598:	00800044 	movi	r2,1
  80259c:	00000106 	br	8025a4 <vTaskPrioritySet+0x13c>
  8025a0:	0005883a 	mov	r2,zero
  8025a4:	10803fcc 	andi	r2,r2,255
  8025a8:	10001926 	beq	r2,zero,802610 <vTaskPrioritySet+0x1a8>
				{
					/* The task is currently in its ready list - remove before adding
					it to it's new ready list.  As we are in a critical section we
					can do this even if the scheduler is suspended. */
					if( uxListRemove( &( pxTCB->xStateListItem ) ) == ( UBaseType_t ) 0 )
  8025ac:	e0bffa17 	ldw	r2,-24(fp)
  8025b0:	10800104 	addi	r2,r2,4
  8025b4:	1009883a 	mov	r4,r2
  8025b8:	08004800 	call	800480 <uxListRemove>
					}
					else
					{
						mtCOVERAGE_TEST_MARKER();
					}
					prvAddTaskToReadyList( pxTCB );
  8025bc:	e0bffa17 	ldw	r2,-24(fp)
  8025c0:	10800b17 	ldw	r2,44(r2)
  8025c4:	d0e02b17 	ldw	r3,-32596(gp)
  8025c8:	1880032e 	bgeu	r3,r2,8025d8 <vTaskPrioritySet+0x170>
  8025cc:	e0bffa17 	ldw	r2,-24(fp)
  8025d0:	10800b17 	ldw	r2,44(r2)
  8025d4:	d0a02b15 	stw	r2,-32596(gp)
  8025d8:	e0bffa17 	ldw	r2,-24(fp)
  8025dc:	10800b17 	ldw	r2,44(r2)
  8025e0:	01400504 	movi	r5,20
  8025e4:	1009883a 	mov	r4,r2
  8025e8:	080b2480 	call	80b248 <__mulsi3>
  8025ec:	1007883a 	mov	r3,r2
  8025f0:	008020f4 	movhi	r2,131
  8025f4:	10ad7c04 	addi	r2,r2,-18960
  8025f8:	1887883a 	add	r3,r3,r2
  8025fc:	e0bffa17 	ldw	r2,-24(fp)
  802600:	10800104 	addi	r2,r2,4
  802604:	100b883a 	mov	r5,r2
  802608:	1809883a 	mov	r4,r3
  80260c:	080031c0 	call	80031c <vListInsertEnd>
				else
				{
					mtCOVERAGE_TEST_MARKER();
				}

				if( xYieldRequired != pdFALSE )
  802610:	e0bff917 	ldw	r2,-28(fp)
  802614:	10000126 	beq	r2,zero,80261c <vTaskPrioritySet+0x1b4>
				{
					taskYIELD_IF_USING_PREEMPTION();
  802618:	003b683a 	trap	0
				/* Remove compiler warning about unused variables when the port
				optimised task selection is not being used. */
				( void ) uxPriorityUsedOnEntry;
			}
		}
		taskEXIT_CRITICAL();
  80261c:	08039000 	call	803900 <vTaskExitCritical>
	}
  802620:	0001883a 	nop
  802624:	e6ffff04 	addi	sp,fp,-4
  802628:	dfc00217 	ldw	ra,8(sp)
  80262c:	df000117 	ldw	fp,4(sp)
  802630:	dc000017 	ldw	r16,0(sp)
  802634:	dec00304 	addi	sp,sp,12
  802638:	f800283a 	ret

0080263c <vTaskSuspend>:
/*-----------------------------------------------------------*/

#if ( INCLUDE_vTaskSuspend == 1 )

	void vTaskSuspend( TaskHandle_t xTaskToSuspend )
	{
  80263c:	defffc04 	addi	sp,sp,-16
  802640:	dfc00315 	stw	ra,12(sp)
  802644:	df000215 	stw	fp,8(sp)
  802648:	df000204 	addi	fp,sp,8
  80264c:	e13fff15 	stw	r4,-4(fp)
	TCB_t *pxTCB;

		taskENTER_CRITICAL();
  802650:	08038ac0 	call	8038ac <vTaskEnterCritical>
		{
			/* If null is passed in here then it is the running task that is
			being suspended. */
			pxTCB = prvGetTCBFromHandle( xTaskToSuspend );
  802654:	e0bfff17 	ldw	r2,-4(fp)
  802658:	1000021e 	bne	r2,zero,802664 <vTaskSuspend+0x28>
  80265c:	d0a02517 	ldw	r2,-32620(gp)
  802660:	00000106 	br	802668 <vTaskSuspend+0x2c>
  802664:	e0bfff17 	ldw	r2,-4(fp)
  802668:	e0bffe15 	stw	r2,-8(fp)

			traceTASK_SUSPEND( pxTCB );

			/* Remove task from the ready/delayed list and place in the
			suspended list. */
			if( uxListRemove( &( pxTCB->xStateListItem ) ) == ( UBaseType_t ) 0 )
  80266c:	e0bffe17 	ldw	r2,-8(fp)
  802670:	10800104 	addi	r2,r2,4
  802674:	1009883a 	mov	r4,r2
  802678:	08004800 	call	800480 <uxListRemove>
			{
				mtCOVERAGE_TEST_MARKER();
			}

			/* Is the task waiting on an event also? */
			if( listLIST_ITEM_CONTAINER( &( pxTCB->xEventListItem ) ) != NULL )
  80267c:	e0bffe17 	ldw	r2,-8(fp)
  802680:	10800a17 	ldw	r2,40(r2)
  802684:	10000426 	beq	r2,zero,802698 <vTaskSuspend+0x5c>
			{
				( void ) uxListRemove( &( pxTCB->xEventListItem ) );
  802688:	e0bffe17 	ldw	r2,-8(fp)
  80268c:	10800604 	addi	r2,r2,24
  802690:	1009883a 	mov	r4,r2
  802694:	08004800 	call	800480 <uxListRemove>
			else
			{
				mtCOVERAGE_TEST_MARKER();
			}

			vListInsertEnd( &xSuspendedTaskList, &( pxTCB->xStateListItem ) );
  802698:	e0bffe17 	ldw	r2,-8(fp)
  80269c:	10800104 	addi	r2,r2,4
  8026a0:	100b883a 	mov	r5,r2
  8026a4:	010020f4 	movhi	r4,131
  8026a8:	212da904 	addi	r4,r4,-18780
  8026ac:	080031c0 	call	80031c <vListInsertEnd>
		}
		taskEXIT_CRITICAL();
  8026b0:	08039000 	call	803900 <vTaskExitCritical>

		if( xSchedulerRunning != pdFALSE )
  8026b4:	d0a02c17 	ldw	r2,-32592(gp)
  8026b8:	10000326 	beq	r2,zero,8026c8 <vTaskSuspend+0x8c>
		{
			/* Reset the next expected unblock time in case it referred to the
			task that is now in the Suspended state. */
			taskENTER_CRITICAL();
  8026bc:	08038ac0 	call	8038ac <vTaskEnterCritical>
			{
				prvResetNextTaskUnblockTime();
  8026c0:	08035cc0 	call	8035cc <prvResetNextTaskUnblockTime>
			}
			taskEXIT_CRITICAL();
  8026c4:	08039000 	call	803900 <vTaskExitCritical>
		else
		{
			mtCOVERAGE_TEST_MARKER();
		}

		if( pxTCB == pxCurrentTCB )
  8026c8:	d0a02517 	ldw	r2,-32620(gp)
  8026cc:	e0fffe17 	ldw	r3,-8(fp)
  8026d0:	18800c1e 	bne	r3,r2,802704 <vTaskSuspend+0xc8>
		{
			if( xSchedulerRunning != pdFALSE )
  8026d4:	d0a02c17 	ldw	r2,-32592(gp)
  8026d8:	10000226 	beq	r2,zero,8026e4 <vTaskSuspend+0xa8>
			{
				/* The current task has just been suspended. */
				configASSERT( uxSchedulerSuspended == 0 );
				portYIELD_WITHIN_API();
  8026dc:	003b683a 	trap	0
		}
		else
		{
			mtCOVERAGE_TEST_MARKER();
		}
	}
  8026e0:	00000806 	br	802704 <vTaskSuspend+0xc8>
			else
			{
				/* The scheduler is not running, but the task that was pointed
				to by pxCurrentTCB has just been suspended and pxCurrentTCB
				must be adjusted to point to a different task. */
				if( listCURRENT_LIST_LENGTH( &xSuspendedTaskList ) == uxCurrentNumberOfTasks )
  8026e4:	008020f4 	movhi	r2,131
  8026e8:	10ada904 	addi	r2,r2,-18780
  8026ec:	10c00017 	ldw	r3,0(r2)
  8026f0:	d0a02917 	ldw	r2,-32604(gp)
  8026f4:	1880021e 	bne	r3,r2,802700 <vTaskSuspend+0xc4>
				{
					/* No other tasks are ready, so set pxCurrentTCB back to
					NULL so when the next task is created pxCurrentTCB will
					be set to point to it no matter what its relative priority
					is. */
					pxCurrentTCB = NULL;
  8026f8:	d0202515 	stw	zero,-32620(gp)
		}
		else
		{
			mtCOVERAGE_TEST_MARKER();
		}
	}
  8026fc:	00000106 	br	802704 <vTaskSuspend+0xc8>
					is. */
					pxCurrentTCB = NULL;
				}
				else
				{
					vTaskSwitchContext();
  802700:	0802e700 	call	802e70 <vTaskSwitchContext>
		}
		else
		{
			mtCOVERAGE_TEST_MARKER();
		}
	}
  802704:	0001883a 	nop
  802708:	e037883a 	mov	sp,fp
  80270c:	dfc00117 	ldw	ra,4(sp)
  802710:	df000017 	ldw	fp,0(sp)
  802714:	dec00204 	addi	sp,sp,8
  802718:	f800283a 	ret

0080271c <prvTaskIsTaskSuspended>:
/*-----------------------------------------------------------*/

#if ( INCLUDE_vTaskSuspend == 1 )

	static BaseType_t prvTaskIsTaskSuspended( const TaskHandle_t xTask )
	{
  80271c:	defffc04 	addi	sp,sp,-16
  802720:	df000315 	stw	fp,12(sp)
  802724:	df000304 	addi	fp,sp,12
  802728:	e13fff15 	stw	r4,-4(fp)
	BaseType_t xReturn = pdFALSE;
  80272c:	e03ffd15 	stw	zero,-12(fp)
	const TCB_t * const pxTCB = ( TCB_t * ) xTask;
  802730:	e0bfff17 	ldw	r2,-4(fp)
  802734:	e0bffe15 	stw	r2,-8(fp)

		/* It does not make sense to check if the calling task is suspended. */
		configASSERT( xTask );

		/* Is the task being resumed actually in the suspended list? */
		if( listIS_CONTAINED_WITHIN( &xSuspendedTaskList, &( pxTCB->xStateListItem ) ) != pdFALSE )
  802738:	e0bffe17 	ldw	r2,-8(fp)
  80273c:	10c00517 	ldw	r3,20(r2)
  802740:	008020f4 	movhi	r2,131
  802744:	10ada904 	addi	r2,r2,-18780
  802748:	1880021e 	bne	r3,r2,802754 <prvTaskIsTaskSuspended+0x38>
  80274c:	00800044 	movi	r2,1
  802750:	00000106 	br	802758 <prvTaskIsTaskSuspended+0x3c>
  802754:	0005883a 	mov	r2,zero
  802758:	10803fcc 	andi	r2,r2,255
  80275c:	10000f26 	beq	r2,zero,80279c <prvTaskIsTaskSuspended+0x80>
		{
			/* Has the task already been resumed from within an ISR? */
			if( listIS_CONTAINED_WITHIN( &xPendingReadyList, &( pxTCB->xEventListItem ) ) == pdFALSE )
  802760:	e0bffe17 	ldw	r2,-8(fp)
  802764:	10c00a17 	ldw	r3,40(r2)
  802768:	008020f4 	movhi	r2,131
  80276c:	10ad9f04 	addi	r2,r2,-18820
  802770:	18800a26 	beq	r3,r2,80279c <prvTaskIsTaskSuspended+0x80>
			{
				/* Is it in the suspended list because it is in the	Suspended
				state, or because is is blocked with no timeout? */
				if( listIS_CONTAINED_WITHIN( NULL, &( pxTCB->xEventListItem ) ) != pdFALSE )
  802774:	e0bffe17 	ldw	r2,-8(fp)
  802778:	10800a17 	ldw	r2,40(r2)
  80277c:	1000021e 	bne	r2,zero,802788 <prvTaskIsTaskSuspended+0x6c>
  802780:	00800044 	movi	r2,1
  802784:	00000106 	br	80278c <prvTaskIsTaskSuspended+0x70>
  802788:	0005883a 	mov	r2,zero
  80278c:	10803fcc 	andi	r2,r2,255
  802790:	10000226 	beq	r2,zero,80279c <prvTaskIsTaskSuspended+0x80>
				{
					xReturn = pdTRUE;
  802794:	00800044 	movi	r2,1
  802798:	e0bffd15 	stw	r2,-12(fp)
		else
		{
			mtCOVERAGE_TEST_MARKER();
		}

		return xReturn;
  80279c:	e0bffd17 	ldw	r2,-12(fp)
	} /*lint !e818 xTask cannot be a pointer to const because it is a typedef. */
  8027a0:	e037883a 	mov	sp,fp
  8027a4:	df000017 	ldw	fp,0(sp)
  8027a8:	dec00104 	addi	sp,sp,4
  8027ac:	f800283a 	ret

008027b0 <vTaskResume>:
/*-----------------------------------------------------------*/

#if ( INCLUDE_vTaskSuspend == 1 )

	void vTaskResume( TaskHandle_t xTaskToResume )
	{
  8027b0:	defffc04 	addi	sp,sp,-16
  8027b4:	dfc00315 	stw	ra,12(sp)
  8027b8:	df000215 	stw	fp,8(sp)
  8027bc:	df000204 	addi	fp,sp,8
  8027c0:	e13fff15 	stw	r4,-4(fp)
	TCB_t * const pxTCB = ( TCB_t * ) xTaskToResume;
  8027c4:	e0bfff17 	ldw	r2,-4(fp)
  8027c8:	e0bffe15 	stw	r2,-8(fp)
		/* It does not make sense to resume the calling task. */
		configASSERT( xTaskToResume );

		/* The parameter cannot be NULL as it is impossible to resume the
		currently executing task. */
		if( ( pxTCB != NULL ) && ( pxTCB != pxCurrentTCB ) )
  8027cc:	e0bffe17 	ldw	r2,-8(fp)
  8027d0:	10002726 	beq	r2,zero,802870 <vTaskResume+0xc0>
  8027d4:	d0a02517 	ldw	r2,-32620(gp)
  8027d8:	e0fffe17 	ldw	r3,-8(fp)
  8027dc:	18802426 	beq	r3,r2,802870 <vTaskResume+0xc0>
		{
			taskENTER_CRITICAL();
  8027e0:	08038ac0 	call	8038ac <vTaskEnterCritical>
			{
				if( prvTaskIsTaskSuspended( pxTCB ) != pdFALSE )
  8027e4:	e13ffe17 	ldw	r4,-8(fp)
  8027e8:	080271c0 	call	80271c <prvTaskIsTaskSuspended>
  8027ec:	10001f26 	beq	r2,zero,80286c <vTaskResume+0xbc>
				{
					traceTASK_RESUME( pxTCB );

					/* As we are in a critical section we can access the ready
					lists even if the scheduler is suspended. */
					( void ) uxListRemove(  &( pxTCB->xStateListItem ) );
  8027f0:	e0bffe17 	ldw	r2,-8(fp)
  8027f4:	10800104 	addi	r2,r2,4
  8027f8:	1009883a 	mov	r4,r2
  8027fc:	08004800 	call	800480 <uxListRemove>
					prvAddTaskToReadyList( pxTCB );
  802800:	e0bffe17 	ldw	r2,-8(fp)
  802804:	10800b17 	ldw	r2,44(r2)
  802808:	d0e02b17 	ldw	r3,-32596(gp)
  80280c:	1880032e 	bgeu	r3,r2,80281c <vTaskResume+0x6c>
  802810:	e0bffe17 	ldw	r2,-8(fp)
  802814:	10800b17 	ldw	r2,44(r2)
  802818:	d0a02b15 	stw	r2,-32596(gp)
  80281c:	e0bffe17 	ldw	r2,-8(fp)
  802820:	10800b17 	ldw	r2,44(r2)
  802824:	01400504 	movi	r5,20
  802828:	1009883a 	mov	r4,r2
  80282c:	080b2480 	call	80b248 <__mulsi3>
  802830:	1007883a 	mov	r3,r2
  802834:	008020f4 	movhi	r2,131
  802838:	10ad7c04 	addi	r2,r2,-18960
  80283c:	1887883a 	add	r3,r3,r2
  802840:	e0bffe17 	ldw	r2,-8(fp)
  802844:	10800104 	addi	r2,r2,4
  802848:	100b883a 	mov	r5,r2
  80284c:	1809883a 	mov	r4,r3
  802850:	080031c0 	call	80031c <vListInsertEnd>

					/* We may have just resumed a higher priority task. */
					if( pxTCB->uxPriority >= pxCurrentTCB->uxPriority )
  802854:	e0bffe17 	ldw	r2,-8(fp)
  802858:	10c00b17 	ldw	r3,44(r2)
  80285c:	d0a02517 	ldw	r2,-32620(gp)
  802860:	10800b17 	ldw	r2,44(r2)
  802864:	18800136 	bltu	r3,r2,80286c <vTaskResume+0xbc>
					{
						/* This yield may not cause the task just resumed to run,
						but will leave the lists in the correct state for the
						next yield. */
						taskYIELD_IF_USING_PREEMPTION();
  802868:	003b683a 	trap	0
				else
				{
					mtCOVERAGE_TEST_MARKER();
				}
			}
			taskEXIT_CRITICAL();
  80286c:	08039000 	call	803900 <vTaskExitCritical>
		}
		else
		{
			mtCOVERAGE_TEST_MARKER();
		}
	}
  802870:	0001883a 	nop
  802874:	e037883a 	mov	sp,fp
  802878:	dfc00117 	ldw	ra,4(sp)
  80287c:	df000017 	ldw	fp,0(sp)
  802880:	dec00204 	addi	sp,sp,8
  802884:	f800283a 	ret

00802888 <xTaskResumeFromISR>:
/*-----------------------------------------------------------*/

#if ( ( INCLUDE_xTaskResumeFromISR == 1 ) && ( INCLUDE_vTaskSuspend == 1 ) )

	BaseType_t xTaskResumeFromISR( TaskHandle_t xTaskToResume )
	{
  802888:	defffa04 	addi	sp,sp,-24
  80288c:	dfc00515 	stw	ra,20(sp)
  802890:	df000415 	stw	fp,16(sp)
  802894:	df000404 	addi	fp,sp,16
  802898:	e13fff15 	stw	r4,-4(fp)
	BaseType_t xYieldRequired = pdFALSE;
  80289c:	e03ffc15 	stw	zero,-16(fp)
	TCB_t * const pxTCB = ( TCB_t * ) xTaskToResume;
  8028a0:	e0bfff17 	ldw	r2,-4(fp)
  8028a4:	e0bffd15 	stw	r2,-12(fp)
		simple as possible.  More information (albeit Cortex-M specific) is
		provided on the following link:
		http://www.freertos.org/RTOS-Cortex-M3-M4.html */
		portASSERT_IF_INTERRUPT_PRIORITY_INVALID();

		uxSavedInterruptStatus = portSET_INTERRUPT_MASK_FROM_ISR();
  8028a8:	e03ffe15 	stw	zero,-8(fp)
		{
			if( prvTaskIsTaskSuspended( pxTCB ) != pdFALSE )
  8028ac:	e13ffd17 	ldw	r4,-12(fp)
  8028b0:	080271c0 	call	80271c <prvTaskIsTaskSuspended>
  8028b4:	10002926 	beq	r2,zero,80295c <xTaskResumeFromISR+0xd4>
			{
				traceTASK_RESUME_FROM_ISR( pxTCB );

				/* Check the ready lists can be accessed. */
				if( uxSchedulerSuspended == ( UBaseType_t ) pdFALSE )
  8028b8:	d0a03317 	ldw	r2,-32564(gp)
  8028bc:	1000211e 	bne	r2,zero,802944 <xTaskResumeFromISR+0xbc>
				{
					/* Ready lists can be accessed so move the task from the
					suspended list to the ready list directly. */
					if( pxTCB->uxPriority >= pxCurrentTCB->uxPriority )
  8028c0:	e0bffd17 	ldw	r2,-12(fp)
  8028c4:	10c00b17 	ldw	r3,44(r2)
  8028c8:	d0a02517 	ldw	r2,-32620(gp)
  8028cc:	10800b17 	ldw	r2,44(r2)
  8028d0:	18800236 	bltu	r3,r2,8028dc <xTaskResumeFromISR+0x54>
					{
						xYieldRequired = pdTRUE;
  8028d4:	00800044 	movi	r2,1
  8028d8:	e0bffc15 	stw	r2,-16(fp)
					else
					{
						mtCOVERAGE_TEST_MARKER();
					}

					( void ) uxListRemove( &( pxTCB->xStateListItem ) );
  8028dc:	e0bffd17 	ldw	r2,-12(fp)
  8028e0:	10800104 	addi	r2,r2,4
  8028e4:	1009883a 	mov	r4,r2
  8028e8:	08004800 	call	800480 <uxListRemove>
					prvAddTaskToReadyList( pxTCB );
  8028ec:	e0bffd17 	ldw	r2,-12(fp)
  8028f0:	10800b17 	ldw	r2,44(r2)
  8028f4:	d0e02b17 	ldw	r3,-32596(gp)
  8028f8:	1880032e 	bgeu	r3,r2,802908 <xTaskResumeFromISR+0x80>
  8028fc:	e0bffd17 	ldw	r2,-12(fp)
  802900:	10800b17 	ldw	r2,44(r2)
  802904:	d0a02b15 	stw	r2,-32596(gp)
  802908:	e0bffd17 	ldw	r2,-12(fp)
  80290c:	10800b17 	ldw	r2,44(r2)
  802910:	01400504 	movi	r5,20
  802914:	1009883a 	mov	r4,r2
  802918:	080b2480 	call	80b248 <__mulsi3>
  80291c:	1007883a 	mov	r3,r2
  802920:	008020f4 	movhi	r2,131
  802924:	10ad7c04 	addi	r2,r2,-18960
  802928:	1887883a 	add	r3,r3,r2
  80292c:	e0bffd17 	ldw	r2,-12(fp)
  802930:	10800104 	addi	r2,r2,4
  802934:	100b883a 	mov	r5,r2
  802938:	1809883a 	mov	r4,r3
  80293c:	080031c0 	call	80031c <vListInsertEnd>
  802940:	00000606 	br	80295c <xTaskResumeFromISR+0xd4>
				else
				{
					/* The delayed or ready lists cannot be accessed so the task
					is held in the pending ready list until the scheduler is
					unsuspended. */
					vListInsertEnd( &( xPendingReadyList ), &( pxTCB->xEventListItem ) );
  802944:	e0bffd17 	ldw	r2,-12(fp)
  802948:	10800604 	addi	r2,r2,24
  80294c:	100b883a 	mov	r5,r2
  802950:	010020f4 	movhi	r4,131
  802954:	212d9f04 	addi	r4,r4,-18820
  802958:	080031c0 	call	80031c <vListInsertEnd>
				mtCOVERAGE_TEST_MARKER();
			}
		}
		portCLEAR_INTERRUPT_MASK_FROM_ISR( uxSavedInterruptStatus );

		return xYieldRequired;
  80295c:	e0bffc17 	ldw	r2,-16(fp)
	}
  802960:	e037883a 	mov	sp,fp
  802964:	dfc00117 	ldw	ra,4(sp)
  802968:	df000017 	ldw	fp,0(sp)
  80296c:	dec00204 	addi	sp,sp,8
  802970:	f800283a 	ret

00802974 <vTaskStartScheduler>:

#endif /* ( ( INCLUDE_xTaskResumeFromISR == 1 ) && ( INCLUDE_vTaskSuspend == 1 ) ) */
/*-----------------------------------------------------------*/

void vTaskStartScheduler( void )
{
  802974:	defffa04 	addi	sp,sp,-24
  802978:	dfc00515 	stw	ra,20(sp)
  80297c:	df000415 	stw	fp,16(sp)
  802980:	df000404 	addi	fp,sp,16
		}
	}
	#else
	{
		/* The Idle task is being created using dynamically allocated RAM. */
		xReturn = xTaskCreate(	prvIdleTask,
  802984:	d0a03204 	addi	r2,gp,-32568
  802988:	d8800115 	stw	r2,4(sp)
  80298c:	d8000015 	stw	zero,0(sp)
  802990:	000f883a 	mov	r7,zero
  802994:	01820004 	movi	r6,2048
  802998:	01402074 	movhi	r5,129
  80299c:	2948be04 	addi	r5,r5,8952
  8029a0:	01002034 	movhi	r4,128
  8029a4:	210cd004 	addi	r4,r4,13120
  8029a8:	0801dd00 	call	801dd0 <xTaskCreate>
  8029ac:	e0bffe15 	stw	r2,-8(fp)
			mtCOVERAGE_TEST_MARKER();
		}
	}
	#endif /* configUSE_TIMERS */

	if( xReturn == pdPASS )
  8029b0:	e0bffe17 	ldw	r2,-8(fp)
  8029b4:	10800058 	cmpnei	r2,r2,1
  8029b8:	10000c1e 	bne	r2,zero,8029ec <vTaskStartScheduler+0x78>
static ALT_INLINE alt_irq_context ALT_ALWAYS_INLINE 
       alt_irq_disable_all (void)
{
  alt_irq_context context;

  NIOS2_READ_STATUS (context);
  8029bc:	0005303a 	rdctl	r2,status
  8029c0:	e0bfff15 	stw	r2,-4(fp)

  NIOS2_WRITE_STATUS (context & ~NIOS2_STATUS_PIE_MSK);
  8029c4:	e0ffff17 	ldw	r3,-4(fp)
  8029c8:	00bfff84 	movi	r2,-2
  8029cc:	1884703a 	and	r2,r3,r2
  8029d0:	1001703a 	wrctl	status,r2
			structure specific to the task that will run first. */
			_impure_ptr = &( pxCurrentTCB->xNewLib_reent );
		}
		#endif /* configUSE_NEWLIB_REENTRANT */

		xNextTaskUnblockTime = portMAX_DELAY;
  8029d4:	00bfffc4 	movi	r2,-1
  8029d8:	d0a03115 	stw	r2,-32572(gp)
		xSchedulerRunning = pdTRUE;
  8029dc:	00800044 	movi	r2,1
  8029e0:	d0a02c15 	stw	r2,-32592(gp)
		xTickCount = ( TickType_t ) 0U;
  8029e4:	d0202a15 	stw	zero,-32600(gp)
		the run time counter time base. */
		portCONFIGURE_TIMER_FOR_RUN_TIME_STATS();

		/* Setting up the timer tick is hardware specific and thus in the
		portable interface. */
		if( xPortStartScheduler() != pdFALSE )
  8029e8:	08006200 	call	800620 <xPortStartScheduler>
	}

	/* Prevent compiler warnings if INCLUDE_xTaskGetIdleTaskHandle is set to 0,
	meaning xIdleTaskHandle is not used anywhere else. */
	( void ) xIdleTaskHandle;
}
  8029ec:	0001883a 	nop
  8029f0:	e037883a 	mov	sp,fp
  8029f4:	dfc00117 	ldw	ra,4(sp)
  8029f8:	df000017 	ldw	fp,0(sp)
  8029fc:	dec00204 	addi	sp,sp,8
  802a00:	f800283a 	ret

00802a04 <vTaskEndScheduler>:
/*-----------------------------------------------------------*/

void vTaskEndScheduler( void )
{
  802a04:	defffd04 	addi	sp,sp,-12
  802a08:	dfc00215 	stw	ra,8(sp)
  802a0c:	df000115 	stw	fp,4(sp)
  802a10:	df000104 	addi	fp,sp,4
static ALT_INLINE alt_irq_context ALT_ALWAYS_INLINE 
       alt_irq_disable_all (void)
{
  alt_irq_context context;

  NIOS2_READ_STATUS (context);
  802a14:	0005303a 	rdctl	r2,status
  802a18:	e0bfff15 	stw	r2,-4(fp)

  NIOS2_WRITE_STATUS (context & ~NIOS2_STATUS_PIE_MSK);
  802a1c:	e0ffff17 	ldw	r3,-4(fp)
  802a20:	00bfff84 	movi	r2,-2
  802a24:	1884703a 	and	r2,r3,r2
  802a28:	1001703a 	wrctl	status,r2
	/* Stop the scheduler interrupts and call the portable scheduler end
	routine so the original ISRs can be restored if necessary.  The port
	layer must ensure interrupts enable	bit is left in the correct state. */
	portDISABLE_INTERRUPTS();
	xSchedulerRunning = pdFALSE;
  802a2c:	d0202c15 	stw	zero,-32592(gp)
	vPortEndScheduler();
  802a30:	08006580 	call	800658 <vPortEndScheduler>
}
  802a34:	0001883a 	nop
  802a38:	e037883a 	mov	sp,fp
  802a3c:	dfc00117 	ldw	ra,4(sp)
  802a40:	df000017 	ldw	fp,0(sp)
  802a44:	dec00204 	addi	sp,sp,8
  802a48:	f800283a 	ret

00802a4c <vTaskSuspendAll>:
/*----------------------------------------------------------*/

void vTaskSuspendAll( void )
{
  802a4c:	deffff04 	addi	sp,sp,-4
  802a50:	df000015 	stw	fp,0(sp)
  802a54:	d839883a 	mov	fp,sp
	/* A critical section is not required as the variable is of type
	BaseType_t.  Please read Richard Barry's reply in the following link to a
	post in the FreeRTOS support forum before reporting this as a bug! -
	http://goo.gl/wu4acr */
	++uxSchedulerSuspended;
  802a58:	d0a03317 	ldw	r2,-32564(gp)
  802a5c:	10800044 	addi	r2,r2,1
  802a60:	d0a03315 	stw	r2,-32564(gp)
}
  802a64:	0001883a 	nop
  802a68:	e037883a 	mov	sp,fp
  802a6c:	df000017 	ldw	fp,0(sp)
  802a70:	dec00104 	addi	sp,sp,4
  802a74:	f800283a 	ret

00802a78 <xTaskResumeAll>:

#endif /* configUSE_TICKLESS_IDLE */
/*----------------------------------------------------------*/

BaseType_t xTaskResumeAll( void )
{
  802a78:	defffb04 	addi	sp,sp,-20
  802a7c:	dfc00415 	stw	ra,16(sp)
  802a80:	df000315 	stw	fp,12(sp)
  802a84:	df000304 	addi	fp,sp,12
TCB_t *pxTCB = NULL;
  802a88:	e03ffd15 	stw	zero,-12(fp)
BaseType_t xAlreadyYielded = pdFALSE;
  802a8c:	e03ffe15 	stw	zero,-8(fp)
	/* It is possible that an ISR caused a task to be removed from an event
	list while the scheduler was suspended.  If this was the case then the
	removed task will have been added to the xPendingReadyList.  Once the
	scheduler has been resumed it is safe to move all the pending ready
	tasks from this list into their appropriate ready list. */
	taskENTER_CRITICAL();
  802a90:	08038ac0 	call	8038ac <vTaskEnterCritical>
	{
		--uxSchedulerSuspended;
  802a94:	d0a03317 	ldw	r2,-32564(gp)
  802a98:	10bfffc4 	addi	r2,r2,-1
  802a9c:	d0a03315 	stw	r2,-32564(gp)

		if( uxSchedulerSuspended == ( UBaseType_t ) pdFALSE )
  802aa0:	d0a03317 	ldw	r2,-32564(gp)
  802aa4:	1000461e 	bne	r2,zero,802bc0 <xTaskResumeAll+0x148>
		{
			if( uxCurrentNumberOfTasks > ( UBaseType_t ) 0U )
  802aa8:	d0a02917 	ldw	r2,-32604(gp)
  802aac:	10004426 	beq	r2,zero,802bc0 <xTaskResumeAll+0x148>
			{
				/* Move any readied tasks from the pending list into the
				appropriate ready list. */
				while( listLIST_IS_EMPTY( &xPendingReadyList ) == pdFALSE )
  802ab0:	00002906 	br	802b58 <xTaskResumeAll+0xe0>
				{
					pxTCB = ( TCB_t * ) listGET_OWNER_OF_HEAD_ENTRY( ( &xPendingReadyList ) );
  802ab4:	008020f4 	movhi	r2,131
  802ab8:	10ad9f04 	addi	r2,r2,-18820
  802abc:	10800317 	ldw	r2,12(r2)
  802ac0:	10800317 	ldw	r2,12(r2)
  802ac4:	e0bffd15 	stw	r2,-12(fp)
					( void ) uxListRemove( &( pxTCB->xEventListItem ) );
  802ac8:	e0bffd17 	ldw	r2,-12(fp)
  802acc:	10800604 	addi	r2,r2,24
  802ad0:	1009883a 	mov	r4,r2
  802ad4:	08004800 	call	800480 <uxListRemove>
					( void ) uxListRemove( &( pxTCB->xStateListItem ) );
  802ad8:	e0bffd17 	ldw	r2,-12(fp)
  802adc:	10800104 	addi	r2,r2,4
  802ae0:	1009883a 	mov	r4,r2
  802ae4:	08004800 	call	800480 <uxListRemove>
					prvAddTaskToReadyList( pxTCB );
  802ae8:	e0bffd17 	ldw	r2,-12(fp)
  802aec:	10800b17 	ldw	r2,44(r2)
  802af0:	d0e02b17 	ldw	r3,-32596(gp)
  802af4:	1880032e 	bgeu	r3,r2,802b04 <xTaskResumeAll+0x8c>
  802af8:	e0bffd17 	ldw	r2,-12(fp)
  802afc:	10800b17 	ldw	r2,44(r2)
  802b00:	d0a02b15 	stw	r2,-32596(gp)
  802b04:	e0bffd17 	ldw	r2,-12(fp)
  802b08:	10800b17 	ldw	r2,44(r2)
  802b0c:	01400504 	movi	r5,20
  802b10:	1009883a 	mov	r4,r2
  802b14:	080b2480 	call	80b248 <__mulsi3>
  802b18:	1007883a 	mov	r3,r2
  802b1c:	008020f4 	movhi	r2,131
  802b20:	10ad7c04 	addi	r2,r2,-18960
  802b24:	1887883a 	add	r3,r3,r2
  802b28:	e0bffd17 	ldw	r2,-12(fp)
  802b2c:	10800104 	addi	r2,r2,4
  802b30:	100b883a 	mov	r5,r2
  802b34:	1809883a 	mov	r4,r3
  802b38:	080031c0 	call	80031c <vListInsertEnd>

					/* If the moved task has a priority higher than the current
					task then a yield must be performed. */
					if( pxTCB->uxPriority >= pxCurrentTCB->uxPriority )
  802b3c:	e0bffd17 	ldw	r2,-12(fp)
  802b40:	10c00b17 	ldw	r3,44(r2)
  802b44:	d0a02517 	ldw	r2,-32620(gp)
  802b48:	10800b17 	ldw	r2,44(r2)
  802b4c:	18800236 	bltu	r3,r2,802b58 <xTaskResumeAll+0xe0>
					{
						xYieldPending = pdTRUE;
  802b50:	00800044 	movi	r2,1
  802b54:	d0a02e15 	stw	r2,-32584(gp)
		{
			if( uxCurrentNumberOfTasks > ( UBaseType_t ) 0U )
			{
				/* Move any readied tasks from the pending list into the
				appropriate ready list. */
				while( listLIST_IS_EMPTY( &xPendingReadyList ) == pdFALSE )
  802b58:	008020f4 	movhi	r2,131
  802b5c:	10ad9f04 	addi	r2,r2,-18820
  802b60:	10800017 	ldw	r2,0(r2)
  802b64:	103fd31e 	bne	r2,zero,802ab4 <__alt_data_end+0xfff02ab4>
					{
						mtCOVERAGE_TEST_MARKER();
					}
				}

				if( pxTCB != NULL )
  802b68:	e0bffd17 	ldw	r2,-12(fp)
  802b6c:	10000126 	beq	r2,zero,802b74 <xTaskResumeAll+0xfc>
					which may have prevented the next unblock time from being
					re-calculated, in which case re-calculate it now.  Mainly
					important for low power tickless implementations, where
					this can prevent an unnecessary exit from low power
					state. */
					prvResetNextTaskUnblockTime();
  802b70:	08035cc0 	call	8035cc <prvResetNextTaskUnblockTime>
				/* If any ticks occurred while the scheduler was suspended then
				they should be processed now.  This ensures the tick count does
				not	slip, and that any delayed tasks are resumed at the correct
				time. */
				{
					UBaseType_t uxPendedCounts = uxPendedTicks; /* Non-volatile copy. */
  802b74:	d0a02d17 	ldw	r2,-32588(gp)
  802b78:	e0bfff15 	stw	r2,-4(fp)

					if( uxPendedCounts > ( UBaseType_t ) 0U )
  802b7c:	e0bfff17 	ldw	r2,-4(fp)
  802b80:	10000a26 	beq	r2,zero,802bac <xTaskResumeAll+0x134>
					{
						do
						{
							if( xTaskIncrementTick() != pdFALSE )
  802b84:	0802c900 	call	802c90 <xTaskIncrementTick>
  802b88:	10000226 	beq	r2,zero,802b94 <xTaskResumeAll+0x11c>
							{
								xYieldPending = pdTRUE;
  802b8c:	00800044 	movi	r2,1
  802b90:	d0a02e15 	stw	r2,-32584(gp)
							}
							else
							{
								mtCOVERAGE_TEST_MARKER();
							}
							--uxPendedCounts;
  802b94:	e0bfff17 	ldw	r2,-4(fp)
  802b98:	10bfffc4 	addi	r2,r2,-1
  802b9c:	e0bfff15 	stw	r2,-4(fp)
						} while( uxPendedCounts > ( UBaseType_t ) 0U );
  802ba0:	e0bfff17 	ldw	r2,-4(fp)
  802ba4:	103ff71e 	bne	r2,zero,802b84 <__alt_data_end+0xfff02b84>

						uxPendedTicks = 0;
  802ba8:	d0202d15 	stw	zero,-32588(gp)
					{
						mtCOVERAGE_TEST_MARKER();
					}
				}

				if( xYieldPending != pdFALSE )
  802bac:	d0a02e17 	ldw	r2,-32584(gp)
  802bb0:	10000326 	beq	r2,zero,802bc0 <xTaskResumeAll+0x148>
				{
					#if( configUSE_PREEMPTION != 0 )
					{
						xAlreadyYielded = pdTRUE;
  802bb4:	00800044 	movi	r2,1
  802bb8:	e0bffe15 	stw	r2,-8(fp)
					}
					#endif
					taskYIELD_IF_USING_PREEMPTION();
  802bbc:	003b683a 	trap	0
		else
		{
			mtCOVERAGE_TEST_MARKER();
		}
	}
	taskEXIT_CRITICAL();
  802bc0:	08039000 	call	803900 <vTaskExitCritical>

	return xAlreadyYielded;
  802bc4:	e0bffe17 	ldw	r2,-8(fp)
}
  802bc8:	e037883a 	mov	sp,fp
  802bcc:	dfc00117 	ldw	ra,4(sp)
  802bd0:	df000017 	ldw	fp,0(sp)
  802bd4:	dec00204 	addi	sp,sp,8
  802bd8:	f800283a 	ret

00802bdc <xTaskGetTickCount>:
/*-----------------------------------------------------------*/

TickType_t xTaskGetTickCount( void )
{
  802bdc:	defffe04 	addi	sp,sp,-8
  802be0:	df000115 	stw	fp,4(sp)
  802be4:	df000104 	addi	fp,sp,4
TickType_t xTicks;

	/* Critical section required if running on a 16 bit processor. */
	portTICK_TYPE_ENTER_CRITICAL();
	{
		xTicks = xTickCount;
  802be8:	d0a02a17 	ldw	r2,-32600(gp)
  802bec:	e0bfff15 	stw	r2,-4(fp)
	}
	portTICK_TYPE_EXIT_CRITICAL();

	return xTicks;
  802bf0:	e0bfff17 	ldw	r2,-4(fp)
}
  802bf4:	e037883a 	mov	sp,fp
  802bf8:	df000017 	ldw	fp,0(sp)
  802bfc:	dec00104 	addi	sp,sp,4
  802c00:	f800283a 	ret

00802c04 <xTaskGetTickCountFromISR>:
/*-----------------------------------------------------------*/

TickType_t xTaskGetTickCountFromISR( void )
{
  802c04:	defffd04 	addi	sp,sp,-12
  802c08:	df000215 	stw	fp,8(sp)
  802c0c:	df000204 	addi	fp,sp,8
	safe API to ensure interrupt entry is as fast and as simple as possible.
	More information (albeit Cortex-M specific) is provided on the following
	link: http://www.freertos.org/RTOS-Cortex-M3-M4.html */
	portASSERT_IF_INTERRUPT_PRIORITY_INVALID();

	uxSavedInterruptStatus = portTICK_TYPE_SET_INTERRUPT_MASK_FROM_ISR();
  802c10:	e03ffe15 	stw	zero,-8(fp)
	{
		xReturn = xTickCount;
  802c14:	d0a02a17 	ldw	r2,-32600(gp)
  802c18:	e0bfff15 	stw	r2,-4(fp)
	}
	portTICK_TYPE_CLEAR_INTERRUPT_MASK_FROM_ISR( uxSavedInterruptStatus );

	return xReturn;
  802c1c:	e0bfff17 	ldw	r2,-4(fp)
}
  802c20:	e037883a 	mov	sp,fp
  802c24:	df000017 	ldw	fp,0(sp)
  802c28:	dec00104 	addi	sp,sp,4
  802c2c:	f800283a 	ret

00802c30 <uxTaskGetNumberOfTasks>:
/*-----------------------------------------------------------*/

UBaseType_t uxTaskGetNumberOfTasks( void )
{
  802c30:	deffff04 	addi	sp,sp,-4
  802c34:	df000015 	stw	fp,0(sp)
  802c38:	d839883a 	mov	fp,sp
	/* A critical section is not required because the variables are of type
	BaseType_t. */
	return uxCurrentNumberOfTasks;
  802c3c:	d0a02917 	ldw	r2,-32604(gp)
}
  802c40:	e037883a 	mov	sp,fp
  802c44:	df000017 	ldw	fp,0(sp)
  802c48:	dec00104 	addi	sp,sp,4
  802c4c:	f800283a 	ret

00802c50 <pcTaskGetName>:
/*-----------------------------------------------------------*/

char *pcTaskGetName( TaskHandle_t xTaskToQuery ) /*lint !e971 Unqualified char types are allowed for strings and single characters only. */
{
  802c50:	defffd04 	addi	sp,sp,-12
  802c54:	df000215 	stw	fp,8(sp)
  802c58:	df000204 	addi	fp,sp,8
  802c5c:	e13fff15 	stw	r4,-4(fp)
TCB_t *pxTCB;

	/* If null is passed in here then the name of the calling task is being
	queried. */
	pxTCB = prvGetTCBFromHandle( xTaskToQuery );
  802c60:	e0bfff17 	ldw	r2,-4(fp)
  802c64:	1000021e 	bne	r2,zero,802c70 <pcTaskGetName+0x20>
  802c68:	d0a02517 	ldw	r2,-32620(gp)
  802c6c:	00000106 	br	802c74 <pcTaskGetName+0x24>
  802c70:	e0bfff17 	ldw	r2,-4(fp)
  802c74:	e0bffe15 	stw	r2,-8(fp)
	configASSERT( pxTCB );
	return &( pxTCB->pcTaskName[ 0 ] );
  802c78:	e0bffe17 	ldw	r2,-8(fp)
  802c7c:	10800d04 	addi	r2,r2,52
}
  802c80:	e037883a 	mov	sp,fp
  802c84:	df000017 	ldw	fp,0(sp)
  802c88:	dec00104 	addi	sp,sp,4
  802c8c:	f800283a 	ret

00802c90 <xTaskIncrementTick>:

#endif /* INCLUDE_xTaskAbortDelay */
/*----------------------------------------------------------*/

BaseType_t xTaskIncrementTick( void )
{
  802c90:	defff804 	addi	sp,sp,-32
  802c94:	dfc00715 	stw	ra,28(sp)
  802c98:	df000615 	stw	fp,24(sp)
  802c9c:	dc000515 	stw	r16,20(sp)
  802ca0:	df000604 	addi	fp,sp,24
TCB_t * pxTCB;
TickType_t xItemValue;
BaseType_t xSwitchRequired = pdFALSE;
  802ca4:	e03ffa15 	stw	zero,-24(fp)

	/* Called by the portable layer each time a tick interrupt occurs.
	Increments the tick then checks to see if the new tick value will cause any
	tasks to be unblocked. */
	traceTASK_INCREMENT_TICK( xTickCount );
	if( uxSchedulerSuspended == ( UBaseType_t ) pdFALSE )
  802ca8:	d0a03317 	ldw	r2,-32564(gp)
  802cac:	1000621e 	bne	r2,zero,802e38 <xTaskIncrementTick+0x1a8>
	{
		/* Minor optimisation.  The tick count cannot change in this
		block. */
		const TickType_t xConstTickCount = xTickCount + 1;
  802cb0:	d0a02a17 	ldw	r2,-32600(gp)
  802cb4:	10800044 	addi	r2,r2,1
  802cb8:	e0bffb15 	stw	r2,-20(fp)

		/* Increment the RTOS tick, switching the delayed and overflowed
		delayed lists if it wraps to 0. */
		xTickCount = xConstTickCount;
  802cbc:	e0bffb17 	ldw	r2,-20(fp)
  802cc0:	d0a02a15 	stw	r2,-32600(gp)

		if( xConstTickCount == ( TickType_t ) 0U )
  802cc4:	e0bffb17 	ldw	r2,-20(fp)
  802cc8:	10000a1e 	bne	r2,zero,802cf4 <xTaskIncrementTick+0x64>
		{
			taskSWITCH_DELAYED_LISTS();
  802ccc:	d0a02617 	ldw	r2,-32616(gp)
  802cd0:	e0bffc15 	stw	r2,-16(fp)
  802cd4:	d0a02717 	ldw	r2,-32612(gp)
  802cd8:	d0a02615 	stw	r2,-32616(gp)
  802cdc:	e0bffc17 	ldw	r2,-16(fp)
  802ce0:	d0a02715 	stw	r2,-32612(gp)
  802ce4:	d0a02f17 	ldw	r2,-32580(gp)
  802ce8:	10800044 	addi	r2,r2,1
  802cec:	d0a02f15 	stw	r2,-32580(gp)
  802cf0:	08035cc0 	call	8035cc <prvResetNextTaskUnblockTime>

		/* See if this tick has made a timeout expire.  Tasks are stored in
		the	queue in the order of their wake time - meaning once one task
		has been found whose block time has not expired there is no need to
		look any further down the list. */
		if( xConstTickCount >= xNextTaskUnblockTime )
  802cf4:	d0a03117 	ldw	r2,-32572(gp)
  802cf8:	e0fffb17 	ldw	r3,-20(fp)
  802cfc:	18804036 	bltu	r3,r2,802e00 <xTaskIncrementTick+0x170>
		{
			for( ;; )
			{
				if( listLIST_IS_EMPTY( pxDelayedTaskList ) != pdFALSE )
  802d00:	d0a02617 	ldw	r2,-32616(gp)
  802d04:	10800017 	ldw	r2,0(r2)
  802d08:	1000021e 	bne	r2,zero,802d14 <xTaskIncrementTick+0x84>
  802d0c:	00800044 	movi	r2,1
  802d10:	00000106 	br	802d18 <xTaskIncrementTick+0x88>
  802d14:	0005883a 	mov	r2,zero
  802d18:	10803fcc 	andi	r2,r2,255
  802d1c:	10000326 	beq	r2,zero,802d2c <xTaskIncrementTick+0x9c>
					/* The delayed list is empty.  Set xNextTaskUnblockTime
					to the maximum possible value so it is extremely
					unlikely that the
					if( xTickCount >= xNextTaskUnblockTime ) test will pass
					next time through. */
					xNextTaskUnblockTime = portMAX_DELAY; /*lint !e961 MISRA exception as the casts are only redundant for some ports. */
  802d20:	00bfffc4 	movi	r2,-1
  802d24:	d0a03115 	stw	r2,-32572(gp)
					break;
  802d28:	00003506 	br	802e00 <xTaskIncrementTick+0x170>
				{
					/* The delayed list is not empty, get the value of the
					item at the head of the delayed list.  This is the time
					at which the task at the head of the delayed list must
					be removed from the Blocked state. */
					pxTCB = ( TCB_t * ) listGET_OWNER_OF_HEAD_ENTRY( pxDelayedTaskList );
  802d2c:	d0a02617 	ldw	r2,-32616(gp)
  802d30:	10800317 	ldw	r2,12(r2)
  802d34:	10800317 	ldw	r2,12(r2)
  802d38:	e0bffd15 	stw	r2,-12(fp)
					xItemValue = listGET_LIST_ITEM_VALUE( &( pxTCB->xStateListItem ) );
  802d3c:	e0bffd17 	ldw	r2,-12(fp)
  802d40:	10800117 	ldw	r2,4(r2)
  802d44:	e0bffe15 	stw	r2,-8(fp)

					if( xConstTickCount < xItemValue )
  802d48:	e0fffb17 	ldw	r3,-20(fp)
  802d4c:	e0bffe17 	ldw	r2,-8(fp)
  802d50:	1880032e 	bgeu	r3,r2,802d60 <xTaskIncrementTick+0xd0>
						/* It is not time to unblock this item yet, but the
						item value is the time at which the task at the head
						of the blocked list must be removed from the Blocked
						state -	so record the item value in
						xNextTaskUnblockTime. */
						xNextTaskUnblockTime = xItemValue;
  802d54:	e0bffe17 	ldw	r2,-8(fp)
  802d58:	d0a03115 	stw	r2,-32572(gp)
						break;
  802d5c:	00002806 	br	802e00 <xTaskIncrementTick+0x170>
					{
						mtCOVERAGE_TEST_MARKER();
					}

					/* It is time to remove the item from the Blocked state. */
					( void ) uxListRemove( &( pxTCB->xStateListItem ) );
  802d60:	e0bffd17 	ldw	r2,-12(fp)
  802d64:	10800104 	addi	r2,r2,4
  802d68:	1009883a 	mov	r4,r2
  802d6c:	08004800 	call	800480 <uxListRemove>

					/* Is the task waiting on an event also?  If so remove
					it from the event list. */
					if( listLIST_ITEM_CONTAINER( &( pxTCB->xEventListItem ) ) != NULL )
  802d70:	e0bffd17 	ldw	r2,-12(fp)
  802d74:	10800a17 	ldw	r2,40(r2)
  802d78:	10000426 	beq	r2,zero,802d8c <xTaskIncrementTick+0xfc>
					{
						( void ) uxListRemove( &( pxTCB->xEventListItem ) );
  802d7c:	e0bffd17 	ldw	r2,-12(fp)
  802d80:	10800604 	addi	r2,r2,24
  802d84:	1009883a 	mov	r4,r2
  802d88:	08004800 	call	800480 <uxListRemove>
						mtCOVERAGE_TEST_MARKER();
					}

					/* Place the unblocked task into the appropriate ready
					list. */
					prvAddTaskToReadyList( pxTCB );
  802d8c:	e0bffd17 	ldw	r2,-12(fp)
  802d90:	10800b17 	ldw	r2,44(r2)
  802d94:	d0e02b17 	ldw	r3,-32596(gp)
  802d98:	1880032e 	bgeu	r3,r2,802da8 <xTaskIncrementTick+0x118>
  802d9c:	e0bffd17 	ldw	r2,-12(fp)
  802da0:	10800b17 	ldw	r2,44(r2)
  802da4:	d0a02b15 	stw	r2,-32596(gp)
  802da8:	e0bffd17 	ldw	r2,-12(fp)
  802dac:	10800b17 	ldw	r2,44(r2)
  802db0:	01400504 	movi	r5,20
  802db4:	1009883a 	mov	r4,r2
  802db8:	080b2480 	call	80b248 <__mulsi3>
  802dbc:	1007883a 	mov	r3,r2
  802dc0:	008020f4 	movhi	r2,131
  802dc4:	10ad7c04 	addi	r2,r2,-18960
  802dc8:	1887883a 	add	r3,r3,r2
  802dcc:	e0bffd17 	ldw	r2,-12(fp)
  802dd0:	10800104 	addi	r2,r2,4
  802dd4:	100b883a 	mov	r5,r2
  802dd8:	1809883a 	mov	r4,r3
  802ddc:	080031c0 	call	80031c <vListInsertEnd>
					{
						/* Preemption is on, but a context switch should
						only be performed if the unblocked task has a
						priority that is equal to or higher than the
						currently executing task. */
						if( pxTCB->uxPriority >= pxCurrentTCB->uxPriority )
  802de0:	e0bffd17 	ldw	r2,-12(fp)
  802de4:	10c00b17 	ldw	r3,44(r2)
  802de8:	d0a02517 	ldw	r2,-32620(gp)
  802dec:	10800b17 	ldw	r2,44(r2)
  802df0:	18bfc336 	bltu	r3,r2,802d00 <__alt_data_end+0xfff02d00>
						{
							xSwitchRequired = pdTRUE;
  802df4:	00800044 	movi	r2,1
  802df8:	e0bffa15 	stw	r2,-24(fp)
							mtCOVERAGE_TEST_MARKER();
						}
					}
					#endif /* configUSE_PREEMPTION */
				}
			}
  802dfc:	003fc006 	br	802d00 <__alt_data_end+0xfff02d00>
		/* Tasks of equal priority to the currently running task will share
		processing time (time slice) if preemption is on, and the application
		writer has not explicitly turned time slicing off. */
		#if ( ( configUSE_PREEMPTION == 1 ) && ( configUSE_TIME_SLICING == 1 ) )
		{
			if( listCURRENT_LIST_LENGTH( &( pxReadyTasksLists[ pxCurrentTCB->uxPriority ] ) ) > ( UBaseType_t ) 1 )
  802e00:	d0a02517 	ldw	r2,-32620(gp)
  802e04:	10800b17 	ldw	r2,44(r2)
  802e08:	040020f4 	movhi	r16,131
  802e0c:	842d7c04 	addi	r16,r16,-18960
  802e10:	01400504 	movi	r5,20
  802e14:	1009883a 	mov	r4,r2
  802e18:	080b2480 	call	80b248 <__mulsi3>
  802e1c:	8085883a 	add	r2,r16,r2
  802e20:	10800017 	ldw	r2,0(r2)
  802e24:	108000b0 	cmpltui	r2,r2,2
  802e28:	1000061e 	bne	r2,zero,802e44 <xTaskIncrementTick+0x1b4>
			{
				xSwitchRequired = pdTRUE;
  802e2c:	00800044 	movi	r2,1
  802e30:	e0bffa15 	stw	r2,-24(fp)
  802e34:	00000306 	br	802e44 <xTaskIncrementTick+0x1b4>
		}
		#endif /* configUSE_TICK_HOOK */
	}
	else
	{
		++uxPendedTicks;
  802e38:	d0a02d17 	ldw	r2,-32588(gp)
  802e3c:	10800044 	addi	r2,r2,1
  802e40:	d0a02d15 	stw	r2,-32588(gp)
		#endif
	}

	#if ( configUSE_PREEMPTION == 1 )
	{
		if( xYieldPending != pdFALSE )
  802e44:	d0a02e17 	ldw	r2,-32584(gp)
  802e48:	10000226 	beq	r2,zero,802e54 <xTaskIncrementTick+0x1c4>
		{
			xSwitchRequired = pdTRUE;
  802e4c:	00800044 	movi	r2,1
  802e50:	e0bffa15 	stw	r2,-24(fp)
			mtCOVERAGE_TEST_MARKER();
		}
	}
	#endif /* configUSE_PREEMPTION */

	return xSwitchRequired;
  802e54:	e0bffa17 	ldw	r2,-24(fp)
}
  802e58:	e6ffff04 	addi	sp,fp,-4
  802e5c:	dfc00217 	ldw	ra,8(sp)
  802e60:	df000117 	ldw	fp,4(sp)
  802e64:	dc000017 	ldw	r16,0(sp)
  802e68:	dec00304 	addi	sp,sp,12
  802e6c:	f800283a 	ret

00802e70 <vTaskSwitchContext>:

#endif /* configUSE_APPLICATION_TASK_TAG */
/*-----------------------------------------------------------*/

void vTaskSwitchContext( void )
{
  802e70:	defffb04 	addi	sp,sp,-20
  802e74:	dfc00415 	stw	ra,16(sp)
  802e78:	df000315 	stw	fp,12(sp)
  802e7c:	dc000215 	stw	r16,8(sp)
  802e80:	df000304 	addi	fp,sp,12
	if( uxSchedulerSuspended != ( UBaseType_t ) pdFALSE )
  802e84:	d0a03317 	ldw	r2,-32564(gp)
  802e88:	10000326 	beq	r2,zero,802e98 <vTaskSwitchContext+0x28>
	{
		/* The scheduler is currently suspended - do not allow a context
		switch. */
		xYieldPending = pdTRUE;
  802e8c:	00800044 	movi	r2,1
  802e90:	d0a02e15 	stw	r2,-32584(gp)
			structure specific to this task. */
			_impure_ptr = &( pxCurrentTCB->xNewLib_reent );
		}
		#endif /* configUSE_NEWLIB_REENTRANT */
	}
}
  802e94:	00002d06 	br	802f4c <vTaskSwitchContext+0xdc>
		switch. */
		xYieldPending = pdTRUE;
	}
	else
	{
		xYieldPending = pdFALSE;
  802e98:	d0202e15 	stw	zero,-32584(gp)
		/* Check for stack overflow, if configured. */
		taskCHECK_FOR_STACK_OVERFLOW();

		/* Select a new task to run using either the generic C or port
		optimised asm code. */
		taskSELECT_HIGHEST_PRIORITY_TASK();
  802e9c:	d0a02b17 	ldw	r2,-32596(gp)
  802ea0:	e0bffd15 	stw	r2,-12(fp)
  802ea4:	00000306 	br	802eb4 <vTaskSwitchContext+0x44>
  802ea8:	e0bffd17 	ldw	r2,-12(fp)
  802eac:	10bfffc4 	addi	r2,r2,-1
  802eb0:	e0bffd15 	stw	r2,-12(fp)
  802eb4:	040020f4 	movhi	r16,131
  802eb8:	842d7c04 	addi	r16,r16,-18960
  802ebc:	e0bffd17 	ldw	r2,-12(fp)
  802ec0:	01400504 	movi	r5,20
  802ec4:	1009883a 	mov	r4,r2
  802ec8:	080b2480 	call	80b248 <__mulsi3>
  802ecc:	8085883a 	add	r2,r16,r2
  802ed0:	10800017 	ldw	r2,0(r2)
  802ed4:	103ff426 	beq	r2,zero,802ea8 <__alt_data_end+0xfff02ea8>
  802ed8:	01400504 	movi	r5,20
  802edc:	e13ffd17 	ldw	r4,-12(fp)
  802ee0:	080b2480 	call	80b248 <__mulsi3>
  802ee4:	1007883a 	mov	r3,r2
  802ee8:	008020f4 	movhi	r2,131
  802eec:	10ad7c04 	addi	r2,r2,-18960
  802ef0:	1885883a 	add	r2,r3,r2
  802ef4:	e0bffe15 	stw	r2,-8(fp)
  802ef8:	e0bffe17 	ldw	r2,-8(fp)
  802efc:	10800117 	ldw	r2,4(r2)
  802f00:	10c00117 	ldw	r3,4(r2)
  802f04:	e0bffe17 	ldw	r2,-8(fp)
  802f08:	10c00115 	stw	r3,4(r2)
  802f0c:	e0bffe17 	ldw	r2,-8(fp)
  802f10:	10c00117 	ldw	r3,4(r2)
  802f14:	e0bffe17 	ldw	r2,-8(fp)
  802f18:	10800204 	addi	r2,r2,8
  802f1c:	1880051e 	bne	r3,r2,802f34 <vTaskSwitchContext+0xc4>
  802f20:	e0bffe17 	ldw	r2,-8(fp)
  802f24:	10800117 	ldw	r2,4(r2)
  802f28:	10c00117 	ldw	r3,4(r2)
  802f2c:	e0bffe17 	ldw	r2,-8(fp)
  802f30:	10c00115 	stw	r3,4(r2)
  802f34:	e0bffe17 	ldw	r2,-8(fp)
  802f38:	10800117 	ldw	r2,4(r2)
  802f3c:	10800317 	ldw	r2,12(r2)
  802f40:	d0a02515 	stw	r2,-32620(gp)
  802f44:	e0bffd17 	ldw	r2,-12(fp)
  802f48:	d0a02b15 	stw	r2,-32596(gp)
			structure specific to this task. */
			_impure_ptr = &( pxCurrentTCB->xNewLib_reent );
		}
		#endif /* configUSE_NEWLIB_REENTRANT */
	}
}
  802f4c:	0001883a 	nop
  802f50:	e6ffff04 	addi	sp,fp,-4
  802f54:	dfc00217 	ldw	ra,8(sp)
  802f58:	df000117 	ldw	fp,4(sp)
  802f5c:	dc000017 	ldw	r16,0(sp)
  802f60:	dec00304 	addi	sp,sp,12
  802f64:	f800283a 	ret

00802f68 <vTaskPlaceOnEventList>:
/*-----------------------------------------------------------*/

void vTaskPlaceOnEventList( List_t * const pxEventList, const TickType_t xTicksToWait )
{
  802f68:	defffc04 	addi	sp,sp,-16
  802f6c:	dfc00315 	stw	ra,12(sp)
  802f70:	df000215 	stw	fp,8(sp)
  802f74:	df000204 	addi	fp,sp,8
  802f78:	e13ffe15 	stw	r4,-8(fp)
  802f7c:	e17fff15 	stw	r5,-4(fp)

	/* Place the event list item of the TCB in the appropriate event list.
	This is placed in the list in priority order so the highest priority task
	is the first to be woken by the event.  The queue that contains the event
	list is locked, preventing simultaneous access from interrupts. */
	vListInsert( pxEventList, &( pxCurrentTCB->xEventListItem ) );
  802f80:	d0a02517 	ldw	r2,-32620(gp)
  802f84:	10800604 	addi	r2,r2,24
  802f88:	100b883a 	mov	r5,r2
  802f8c:	e13ffe17 	ldw	r4,-8(fp)
  802f90:	08003a80 	call	8003a8 <vListInsert>

	prvAddCurrentTaskToDelayedList( xTicksToWait, pdTRUE );
  802f94:	01400044 	movi	r5,1
  802f98:	e13fff17 	ldw	r4,-4(fp)
  802f9c:	08040c40 	call	8040c4 <prvAddCurrentTaskToDelayedList>
}
  802fa0:	0001883a 	nop
  802fa4:	e037883a 	mov	sp,fp
  802fa8:	dfc00117 	ldw	ra,4(sp)
  802fac:	df000017 	ldw	fp,0(sp)
  802fb0:	dec00204 	addi	sp,sp,8
  802fb4:	f800283a 	ret

00802fb8 <vTaskPlaceOnUnorderedEventList>:
/*-----------------------------------------------------------*/

void vTaskPlaceOnUnorderedEventList( List_t * pxEventList, const TickType_t xItemValue, const TickType_t xTicksToWait )
{
  802fb8:	defffb04 	addi	sp,sp,-20
  802fbc:	dfc00415 	stw	ra,16(sp)
  802fc0:	df000315 	stw	fp,12(sp)
  802fc4:	df000304 	addi	fp,sp,12
  802fc8:	e13ffd15 	stw	r4,-12(fp)
  802fcc:	e17ffe15 	stw	r5,-8(fp)
  802fd0:	e1bfff15 	stw	r6,-4(fp)
	configASSERT( uxSchedulerSuspended != 0 );

	/* Store the item value in the event list item.  It is safe to access the
	event list item here as interrupts won't access the event list item of a
	task that is not in the Blocked state. */
	listSET_LIST_ITEM_VALUE( &( pxCurrentTCB->xEventListItem ), xItemValue | taskEVENT_LIST_ITEM_VALUE_IN_USE );
  802fd4:	d0a02517 	ldw	r2,-32620(gp)
  802fd8:	e0fffe17 	ldw	r3,-8(fp)
  802fdc:	18e00034 	orhi	r3,r3,32768
  802fe0:	10c00615 	stw	r3,24(r2)
	/* Place the event list item of the TCB at the end of the appropriate event
	list.  It is safe to access the event list here because it is part of an
	event group implementation - and interrupts don't access event groups
	directly (instead they access them indirectly by pending function calls to
	the task level). */
	vListInsertEnd( pxEventList, &( pxCurrentTCB->xEventListItem ) );
  802fe4:	d0a02517 	ldw	r2,-32620(gp)
  802fe8:	10800604 	addi	r2,r2,24
  802fec:	100b883a 	mov	r5,r2
  802ff0:	e13ffd17 	ldw	r4,-12(fp)
  802ff4:	080031c0 	call	80031c <vListInsertEnd>

	prvAddCurrentTaskToDelayedList( xTicksToWait, pdTRUE );
  802ff8:	01400044 	movi	r5,1
  802ffc:	e13fff17 	ldw	r4,-4(fp)
  803000:	08040c40 	call	8040c4 <prvAddCurrentTaskToDelayedList>
}
  803004:	0001883a 	nop
  803008:	e037883a 	mov	sp,fp
  80300c:	dfc00117 	ldw	ra,4(sp)
  803010:	df000017 	ldw	fp,0(sp)
  803014:	dec00204 	addi	sp,sp,8
  803018:	f800283a 	ret

0080301c <xTaskRemoveFromEventList>:

#endif /* configUSE_TIMERS */
/*-----------------------------------------------------------*/

BaseType_t xTaskRemoveFromEventList( const List_t * const pxEventList )
{
  80301c:	defffb04 	addi	sp,sp,-20
  803020:	dfc00415 	stw	ra,16(sp)
  803024:	df000315 	stw	fp,12(sp)
  803028:	df000304 	addi	fp,sp,12
  80302c:	e13fff15 	stw	r4,-4(fp)
	get called - the lock count on the queue will get modified instead.  This
	means exclusive access to the event list is guaranteed here.

	This function assumes that a check has already been made to ensure that
	pxEventList is not empty. */
	pxUnblockedTCB = ( TCB_t * ) listGET_OWNER_OF_HEAD_ENTRY( pxEventList );
  803030:	e0bfff17 	ldw	r2,-4(fp)
  803034:	10800317 	ldw	r2,12(r2)
  803038:	10800317 	ldw	r2,12(r2)
  80303c:	e0bffe15 	stw	r2,-8(fp)
	configASSERT( pxUnblockedTCB );
	( void ) uxListRemove( &( pxUnblockedTCB->xEventListItem ) );
  803040:	e0bffe17 	ldw	r2,-8(fp)
  803044:	10800604 	addi	r2,r2,24
  803048:	1009883a 	mov	r4,r2
  80304c:	08004800 	call	800480 <uxListRemove>

	if( uxSchedulerSuspended == ( UBaseType_t ) pdFALSE )
  803050:	d0a03317 	ldw	r2,-32564(gp)
  803054:	10001a1e 	bne	r2,zero,8030c0 <xTaskRemoveFromEventList+0xa4>
	{
		( void ) uxListRemove( &( pxUnblockedTCB->xStateListItem ) );
  803058:	e0bffe17 	ldw	r2,-8(fp)
  80305c:	10800104 	addi	r2,r2,4
  803060:	1009883a 	mov	r4,r2
  803064:	08004800 	call	800480 <uxListRemove>
		prvAddTaskToReadyList( pxUnblockedTCB );
  803068:	e0bffe17 	ldw	r2,-8(fp)
  80306c:	10800b17 	ldw	r2,44(r2)
  803070:	d0e02b17 	ldw	r3,-32596(gp)
  803074:	1880032e 	bgeu	r3,r2,803084 <xTaskRemoveFromEventList+0x68>
  803078:	e0bffe17 	ldw	r2,-8(fp)
  80307c:	10800b17 	ldw	r2,44(r2)
  803080:	d0a02b15 	stw	r2,-32596(gp)
  803084:	e0bffe17 	ldw	r2,-8(fp)
  803088:	10800b17 	ldw	r2,44(r2)
  80308c:	01400504 	movi	r5,20
  803090:	1009883a 	mov	r4,r2
  803094:	080b2480 	call	80b248 <__mulsi3>
  803098:	1007883a 	mov	r3,r2
  80309c:	008020f4 	movhi	r2,131
  8030a0:	10ad7c04 	addi	r2,r2,-18960
  8030a4:	1887883a 	add	r3,r3,r2
  8030a8:	e0bffe17 	ldw	r2,-8(fp)
  8030ac:	10800104 	addi	r2,r2,4
  8030b0:	100b883a 	mov	r5,r2
  8030b4:	1809883a 	mov	r4,r3
  8030b8:	080031c0 	call	80031c <vListInsertEnd>
  8030bc:	00000606 	br	8030d8 <xTaskRemoveFromEventList+0xbc>
	}
	else
	{
		/* The delayed and ready lists cannot be accessed, so hold this task
		pending until the scheduler is resumed. */
		vListInsertEnd( &( xPendingReadyList ), &( pxUnblockedTCB->xEventListItem ) );
  8030c0:	e0bffe17 	ldw	r2,-8(fp)
  8030c4:	10800604 	addi	r2,r2,24
  8030c8:	100b883a 	mov	r5,r2
  8030cc:	010020f4 	movhi	r4,131
  8030d0:	212d9f04 	addi	r4,r4,-18820
  8030d4:	080031c0 	call	80031c <vListInsertEnd>
	}

	if( pxUnblockedTCB->uxPriority > pxCurrentTCB->uxPriority )
  8030d8:	e0bffe17 	ldw	r2,-8(fp)
  8030dc:	10800b17 	ldw	r2,44(r2)
  8030e0:	d0e02517 	ldw	r3,-32620(gp)
  8030e4:	18c00b17 	ldw	r3,44(r3)
  8030e8:	1880052e 	bgeu	r3,r2,803100 <xTaskRemoveFromEventList+0xe4>
	{
		/* Return true if the task removed from the event list has a higher
		priority than the calling task.  This allows the calling task to know if
		it should force a context switch now. */
		xReturn = pdTRUE;
  8030ec:	00800044 	movi	r2,1
  8030f0:	e0bffd15 	stw	r2,-12(fp)

		/* Mark that a yield is pending in case the user is not using the
		"xHigherPriorityTaskWoken" parameter to an ISR safe FreeRTOS function. */
		xYieldPending = pdTRUE;
  8030f4:	00800044 	movi	r2,1
  8030f8:	d0a02e15 	stw	r2,-32584(gp)
  8030fc:	00000106 	br	803104 <xTaskRemoveFromEventList+0xe8>
	}
	else
	{
		xReturn = pdFALSE;
  803100:	e03ffd15 	stw	zero,-12(fp)
		ensure it is updated at the earliest possible time. */
		prvResetNextTaskUnblockTime();
	}
	#endif

	return xReturn;
  803104:	e0bffd17 	ldw	r2,-12(fp)
}
  803108:	e037883a 	mov	sp,fp
  80310c:	dfc00117 	ldw	ra,4(sp)
  803110:	df000017 	ldw	fp,0(sp)
  803114:	dec00204 	addi	sp,sp,8
  803118:	f800283a 	ret

0080311c <xTaskRemoveFromUnorderedEventList>:
/*-----------------------------------------------------------*/

BaseType_t xTaskRemoveFromUnorderedEventList( ListItem_t * pxEventListItem, const TickType_t xItemValue )
{
  80311c:	defffa04 	addi	sp,sp,-24
  803120:	dfc00515 	stw	ra,20(sp)
  803124:	df000415 	stw	fp,16(sp)
  803128:	df000404 	addi	fp,sp,16
  80312c:	e13ffe15 	stw	r4,-8(fp)
  803130:	e17fff15 	stw	r5,-4(fp)
	/* THIS FUNCTION MUST BE CALLED WITH THE SCHEDULER SUSPENDED.  It is used by
	the event flags implementation. */
	configASSERT( uxSchedulerSuspended != pdFALSE );

	/* Store the new item value in the event list. */
	listSET_LIST_ITEM_VALUE( pxEventListItem, xItemValue | taskEVENT_LIST_ITEM_VALUE_IN_USE );
  803134:	e0bfff17 	ldw	r2,-4(fp)
  803138:	10e00034 	orhi	r3,r2,32768
  80313c:	e0bffe17 	ldw	r2,-8(fp)
  803140:	10c00015 	stw	r3,0(r2)

	/* Remove the event list form the event flag.  Interrupts do not access
	event flags. */
	pxUnblockedTCB = ( TCB_t * ) listGET_LIST_ITEM_OWNER( pxEventListItem );
  803144:	e0bffe17 	ldw	r2,-8(fp)
  803148:	10800317 	ldw	r2,12(r2)
  80314c:	e0bffd15 	stw	r2,-12(fp)
	configASSERT( pxUnblockedTCB );
	( void ) uxListRemove( pxEventListItem );
  803150:	e13ffe17 	ldw	r4,-8(fp)
  803154:	08004800 	call	800480 <uxListRemove>

	/* Remove the task from the delayed list and add it to the ready list.  The
	scheduler is suspended so interrupts will not be accessing the ready
	lists. */
	( void ) uxListRemove( &( pxUnblockedTCB->xStateListItem ) );
  803158:	e0bffd17 	ldw	r2,-12(fp)
  80315c:	10800104 	addi	r2,r2,4
  803160:	1009883a 	mov	r4,r2
  803164:	08004800 	call	800480 <uxListRemove>
	prvAddTaskToReadyList( pxUnblockedTCB );
  803168:	e0bffd17 	ldw	r2,-12(fp)
  80316c:	10800b17 	ldw	r2,44(r2)
  803170:	d0e02b17 	ldw	r3,-32596(gp)
  803174:	1880032e 	bgeu	r3,r2,803184 <xTaskRemoveFromUnorderedEventList+0x68>
  803178:	e0bffd17 	ldw	r2,-12(fp)
  80317c:	10800b17 	ldw	r2,44(r2)
  803180:	d0a02b15 	stw	r2,-32596(gp)
  803184:	e0bffd17 	ldw	r2,-12(fp)
  803188:	10800b17 	ldw	r2,44(r2)
  80318c:	01400504 	movi	r5,20
  803190:	1009883a 	mov	r4,r2
  803194:	080b2480 	call	80b248 <__mulsi3>
  803198:	1007883a 	mov	r3,r2
  80319c:	008020f4 	movhi	r2,131
  8031a0:	10ad7c04 	addi	r2,r2,-18960
  8031a4:	1887883a 	add	r3,r3,r2
  8031a8:	e0bffd17 	ldw	r2,-12(fp)
  8031ac:	10800104 	addi	r2,r2,4
  8031b0:	100b883a 	mov	r5,r2
  8031b4:	1809883a 	mov	r4,r3
  8031b8:	080031c0 	call	80031c <vListInsertEnd>

	if( pxUnblockedTCB->uxPriority > pxCurrentTCB->uxPriority )
  8031bc:	e0bffd17 	ldw	r2,-12(fp)
  8031c0:	10800b17 	ldw	r2,44(r2)
  8031c4:	d0e02517 	ldw	r3,-32620(gp)
  8031c8:	18c00b17 	ldw	r3,44(r3)
  8031cc:	1880052e 	bgeu	r3,r2,8031e4 <xTaskRemoveFromUnorderedEventList+0xc8>
	{
		/* Return true if the task removed from the event list has
		a higher priority than the calling task.  This allows
		the calling task to know if it should force a context
		switch now. */
		xReturn = pdTRUE;
  8031d0:	00800044 	movi	r2,1
  8031d4:	e0bffc15 	stw	r2,-16(fp)

		/* Mark that a yield is pending in case the user is not using the
		"xHigherPriorityTaskWoken" parameter to an ISR safe FreeRTOS function. */
		xYieldPending = pdTRUE;
  8031d8:	00800044 	movi	r2,1
  8031dc:	d0a02e15 	stw	r2,-32584(gp)
  8031e0:	00000106 	br	8031e8 <xTaskRemoveFromUnorderedEventList+0xcc>
	}
	else
	{
		xReturn = pdFALSE;
  8031e4:	e03ffc15 	stw	zero,-16(fp)
	}

	return xReturn;
  8031e8:	e0bffc17 	ldw	r2,-16(fp)
}
  8031ec:	e037883a 	mov	sp,fp
  8031f0:	dfc00117 	ldw	ra,4(sp)
  8031f4:	df000017 	ldw	fp,0(sp)
  8031f8:	dec00204 	addi	sp,sp,8
  8031fc:	f800283a 	ret

00803200 <vTaskSetTimeOutState>:
/*-----------------------------------------------------------*/

void vTaskSetTimeOutState( TimeOut_t * const pxTimeOut )
{
  803200:	defffe04 	addi	sp,sp,-8
  803204:	df000115 	stw	fp,4(sp)
  803208:	df000104 	addi	fp,sp,4
  80320c:	e13fff15 	stw	r4,-4(fp)
	configASSERT( pxTimeOut );
	pxTimeOut->xOverflowCount = xNumOfOverflows;
  803210:	d0e02f17 	ldw	r3,-32580(gp)
  803214:	e0bfff17 	ldw	r2,-4(fp)
  803218:	10c00015 	stw	r3,0(r2)
	pxTimeOut->xTimeOnEntering = xTickCount;
  80321c:	d0e02a17 	ldw	r3,-32600(gp)
  803220:	e0bfff17 	ldw	r2,-4(fp)
  803224:	10c00115 	stw	r3,4(r2)
}
  803228:	0001883a 	nop
  80322c:	e037883a 	mov	sp,fp
  803230:	df000017 	ldw	fp,0(sp)
  803234:	dec00104 	addi	sp,sp,4
  803238:	f800283a 	ret

0080323c <xTaskCheckForTimeOut>:
/*-----------------------------------------------------------*/

BaseType_t xTaskCheckForTimeOut( TimeOut_t * const pxTimeOut, TickType_t * const pxTicksToWait )
{
  80323c:	defffa04 	addi	sp,sp,-24
  803240:	dfc00515 	stw	ra,20(sp)
  803244:	df000415 	stw	fp,16(sp)
  803248:	df000404 	addi	fp,sp,16
  80324c:	e13ffe15 	stw	r4,-8(fp)
  803250:	e17fff15 	stw	r5,-4(fp)
BaseType_t xReturn;

	configASSERT( pxTimeOut );
	configASSERT( pxTicksToWait );

	taskENTER_CRITICAL();
  803254:	08038ac0 	call	8038ac <vTaskEnterCritical>
	{
		/* Minor optimisation.  The tick count cannot change in this block. */
		const TickType_t xConstTickCount = xTickCount;
  803258:	d0a02a17 	ldw	r2,-32600(gp)
  80325c:	e0bffd15 	stw	r2,-12(fp)
			}
			else
		#endif

		#if ( INCLUDE_vTaskSuspend == 1 )
			if( *pxTicksToWait == portMAX_DELAY )
  803260:	e0bfff17 	ldw	r2,-4(fp)
  803264:	10800017 	ldw	r2,0(r2)
  803268:	10bfffd8 	cmpnei	r2,r2,-1
  80326c:	1000021e 	bne	r2,zero,803278 <xTaskCheckForTimeOut+0x3c>
			{
				/* If INCLUDE_vTaskSuspend is set to 1 and the block time
				specified is the maximum block time then the task should block
				indefinitely, and therefore never time out. */
				xReturn = pdFALSE;
  803270:	e03ffc15 	stw	zero,-16(fp)
  803274:	00002106 	br	8032fc <xTaskCheckForTimeOut+0xc0>
			}
			else
		#endif

		if( ( xNumOfOverflows != pxTimeOut->xOverflowCount ) && ( xConstTickCount >= pxTimeOut->xTimeOnEntering ) ) /*lint !e525 Indentation preferred as is to make code within pre-processor directives clearer. */
  803278:	e0bffe17 	ldw	r2,-8(fp)
  80327c:	10c00017 	ldw	r3,0(r2)
  803280:	d0a02f17 	ldw	r2,-32580(gp)
  803284:	18800726 	beq	r3,r2,8032a4 <xTaskCheckForTimeOut+0x68>
  803288:	e0bffe17 	ldw	r2,-8(fp)
  80328c:	10800117 	ldw	r2,4(r2)
  803290:	e0fffd17 	ldw	r3,-12(fp)
  803294:	18800336 	bltu	r3,r2,8032a4 <xTaskCheckForTimeOut+0x68>
			/* The tick count is greater than the time at which
			vTaskSetTimeout() was called, but has also overflowed since
			vTaskSetTimeOut() was called.  It must have wrapped all the way
			around and gone past again. This passed since vTaskSetTimeout()
			was called. */
			xReturn = pdTRUE;
  803298:	00800044 	movi	r2,1
  80329c:	e0bffc15 	stw	r2,-16(fp)
  8032a0:	00001606 	br	8032fc <xTaskCheckForTimeOut+0xc0>
		}
		else if( ( ( TickType_t ) ( xConstTickCount - pxTimeOut->xTimeOnEntering ) ) < *pxTicksToWait ) /*lint !e961 Explicit casting is only redundant with some compilers, whereas others require it to prevent integer conversion errors. */
  8032a4:	e0bffe17 	ldw	r2,-8(fp)
  8032a8:	10800117 	ldw	r2,4(r2)
  8032ac:	e0fffd17 	ldw	r3,-12(fp)
  8032b0:	1887c83a 	sub	r3,r3,r2
  8032b4:	e0bfff17 	ldw	r2,-4(fp)
  8032b8:	10800017 	ldw	r2,0(r2)
  8032bc:	18800d2e 	bgeu	r3,r2,8032f4 <xTaskCheckForTimeOut+0xb8>
		{
			/* Not a genuine timeout. Adjust parameters for time remaining. */
